(lp1
(S'company-name'
p2
V\u5b89\u5fbd\u7701\u661f\u542f\u5929\u7f51\u7edc\u6280\u672f\u6709\u9650\u516c\u53f8
p3
tp4
a(g2
V\u5408\u80a5\u7f8e\u6cca\u5c14\u5efa\u6750\u6709\u9650\u516c\u53f8
p5
tp6
a(g2
V\u5b89\u5fbd\u826f\u7c73\u7535\u5b50\u79d1\u6280\u6709\u9650\u516c\u53f8
p7
tp8
a(g2
V\u5408\u80a5\u7f8e\u7684\u7535\u51b0\u7bb1\u6709\u9650\u516c\u53f8
p9
tp10
a(g2
V\u5408\u80a5\u7f8e\u7684\u6d17\u8863\u673a\u6709\u9650\u516c\u53f8
p11
tp12
a(g2
V\u5408\u80a5\u5c16\u74dc\u7535\u5b50\u5546\u52a1\u6709\u9650\u516c\u53f8
p13
tp14
a(g2
V\u5b89\u5fbd\u7701\u5bcc\u5149\u5b9e\u4e1a\u80a1\u4efd\u6709\u9650\u516c\u53f8
p15
tp16
a(g2
V\u5408\u80a5\u5409\u8302\u7535\u5b50\u5546\u52a1\u6709\u9650\u516c\u53f8
p17
tp18
a(g2
V\u5b89\u5fbd\u7269\u751f\u7269\u5bb6\u5c45\u7528\u54c1\u6709\u9650\u516c\u53f8
p19
tp20
a(g2
V\u5408\u80a5\u65b0\u7948\u6e90\u5546\u8d38\u6709\u9650\u516c\u53f8
p21
tp22
a(g2
V\u5b89\u5fbd\u7f8e\u5730\u7f8e\u7535\u5668\u9500\u552e\u6709\u9650\u516c\u53f8
p23
tp24
a(g2
V\u5408\u80a5\u4f18\u987a\u8363\u670d\u9970\u6709\u9650\u516c\u53f8
p25
tp26
a(g2
V\u5b89\u5fbd\u58f9\u67d2\u58f9\u5546\u8d38\u6709\u9650\u516c\u53f8
p27
tp28
a(g2
V\u5408\u80a5\u654f\u5b87\u5546\u8d38\u6709\u9650\u516c\u53f8
p29
tp30
a(g2
V\u60e0\u800c\u6d66\uff08\u4e2d\u56fd\uff09\u80a1\u4efd\u6709\u9650\u516c\u53f8
p31
tp32
a(g2
V\u5408\u80a5\u7231\u7434\u6d77\u7535\u5b50\u5546\u52a1\u6709\u9650\u516c\u53f8
p33
tp34
a(g2
V\u5b89\u5fbd\u9ad8\u68b5\u7535\u5b50\u5546\u52a1\u6709\u9650\u516c\u53f8
p35
tp36
a(g2
V\u5408\u80a5\u5e02\u5929\u5730\u7cbe\u534e\u77ff\u6cc9\u6c34\u5f00\u53d1\u6709\u9650\u516c\u53f8
p37
tp38
a(g2
V\u5b89\u5fbd\u6613\u6d3e\u7f51\u7edc\u79d1\u6280\u6709\u9650\u516c\u53f8
p39
tp40
a(g2
V\u5408\u80a5\u7acb\u5e74\u73af\u4fdd\u79d1\u6280\u6709\u9650\u516c\u53f8
p41
tp42
a(g2
V\u5408\u80a5\u541b\u5929\u7535\u5b50\u5546\u52a1\u6709\u9650\u516c\u53f8
p43
tp44
a(g2
V\u5408\u80a5\u5b8f\u901a\u79d1\u6280\u53d1\u5c55\u6709\u9650\u516c\u53f8
p45
tp46
a(g2
V\u5b89\u5fbd\u6dd8\u4e91\u79d1\u6280\u6709\u9650\u516c\u53f8
p47
tp48
a(g2
V\u5408\u80a5\u593a\u6155\u5546\u8d38\u6709\u9650\u516c\u53f8
p49
tp50
a(g2
V\u5408\u80a5\u7136\u7f8e\u8d38\u6613\u6709\u9650\u516c\u53f8
p51
tp52
a(g2
V\u5408\u80a5\u90a6\u822a\u5546\u8d38\u6709\u9650\u516c\u53f8
p53
tp54
a(g2
V\u5408\u80a5\u7267\u4e91\u7f51\u7edc\u79d1\u6280\u6709\u9650\u516c\u53f8
p55
tp56
a(g2
V\u5408\u80a5\u5c0f\u9c7c\u7535\u5668\u6709\u9650\u516c\u53f8
p57
tp58
a(g2
V\u4e1c\u839e\u5f90\u8bb0\u98df\u54c1\u6709\u9650\u516c\u53f8\u5408\u80a5\u5206\u516c\u53f8
p59
tp60
a(g2
V\u5408\u80a5\u4ec1\u4ea8\u8d38\u6613\u6709\u9650\u516c\u53f8
p61
tp62
a(g2
V\u5408\u80a5\u6d3d\u6d3d\u5473\u4e50\u56ed\u7535\u5b50\u5546\u52a1\u6709\u9650\u516c\u53f8
p63
tp64
a(g2
V\u5408\u80a5\u5f6c\u535a\u5546\u8d38\u6709\u9650\u516c\u53f8
p65
tp66
a(g2
V\u5b89\u5fbd\u65b0\u4eac\u5408\u7535\u5b50\u79d1\u6280\u6709\u9650\u516c\u53f8
p67
tp68
a(g2
V\u5b89\u5fbd\u6613\u4f17\u7f51\u7edc\u79d1\u6280\u6709\u9650\u516c\u53f8
p69
tp70
a(g2
V\u5408\u80a5\u56fd\u4e91\u5de5\u8d38\u6709\u9650\u516c\u53f8
p71
tp72
a(g2
V\u5b89\u5fbd\u7701\u5fb7\u6865\u5546\u8d38\u6709\u9650\u516c\u53f8
p73
tp74
a(g2
V\u5b89\u5fbd\u534e\u7c73\u4fe1\u606f\u79d1\u6280\u6709\u9650\u516c\u53f8
p75
tp76
a(g2
V\u5408\u80a5\u871c\u6843\u6d3e\u8d38\u6613\u6709\u9650\u516c\u53f8
p77
tp78
a(g2
V\u5408\u80a5\u5341\u5ea6\u5bb6\u5c45\u7528\u54c1\u6709\u9650\u516c\u53f8
p79
tp80
a(g2
V\u5408\u80a5\u6052\u5a1f\u5546\u8d38\u6709\u9650\u516c\u53f8
p81
tp82
a(g2
V\u5b89\u5fbd\u7cae\u60a6\u98df\u54c1\u80a1\u4efd\u6709\u9650\u516c\u53f8
p83
tp84
a(g2
V\u5408\u80a5\u6000\u7f18\u5546\u8d38\u6709\u9650\u516c\u53f8
p85
tp86
a(g2
V\u5408\u80a5\u4e1c\u8363\u7535\u5b50\u5546\u52a1\u6709\u9650\u516c\u53f8
p87
tp88
a(g2
V\u5408\u80a5\u5999\u5e86\u5546\u8d38\u6709\u9650\u516c\u53f8
p89
tp90
a(g2
V\u5408\u80a5\u4e34\u6c60\u6587\u5316\u4f20\u5a92\u6709\u9650\u516c\u53f8
p91
tp92
a(g2
V\u5408\u80a5\u82b1\u5f00\u82b1\u679c\u5546\u8d38\u6709\u9650\u516c\u53f8
p93
tp94
a(g2
V\u5408\u80a5\u6db5\u68ee\u7535\u5b50\u5546\u52a1\u6709\u9650\u516c\u53f8
p95
tp96
a(g2
V\u5408\u80a5\u4e07\u8679\u57fa\u4e1a\u5546\u8d38\u6709\u9650\u516c\u53f8
p97
tp98
a(g2
V\u5408\u80a5\u5e02\u660e\u971e\u5de5\u8d38\u6709\u9650\u516c\u53f8
p99
tp100
a(g2
V\u5408\u80a5\u777f\u838e\u5546\u8d38\u6709\u9650\u516c\u53f8
p101
tp102
a(g2
V\u5408\u80a5\u8d77\u51e1\u826f\u54c1\u7f51\u7edc\u79d1\u6280\u6709\u9650\u516c\u53f8
p103
tp104
a(g2
V\u5408\u80a5\u4e0a\u996e\u7535\u5b50\u5546\u52a1\u6709\u9650\u516c\u53f8
p105
tp106
a(g2
V\u5408\u80a5\u540d\u54c1\u6c47\u5546\u8d38\u6709\u9650\u516c\u53f8
p107
tp108
a(g2
V\u5408\u80a5\u65b0\u6613\u7f51\u7535\u5b50\u4ea7\u54c1\u7ecf\u8425\u90e8
p109
tp110
a(g2
V\u5408\u80a5\u5b9d\u5c0a\u7535\u5b50\u5546\u52a1\u6709\u9650\u516c\u53f8
p111
tp112
a(g2
V\u5408\u80a5\u4ebf\u5c14\u535a\u56fe\u4e66\u6709\u9650\u516c\u53f8
p113
tp114
a(g2
V\u5408\u80a5\u7d20\u7f8e\u7535\u5b50\u5546\u52a1\u6709\u9650\u516c\u53f8
p115
tp116
a(g2
V\u5408\u80a5\u5c1a\u5eb7\u7535\u5b50\u79d1\u6280\u6709\u9650\u516c\u53f8
p117
tp118
a(g2
V\u5b89\u5fbd\u71d5\u4e4b\u574a\u98df\u54c1\u6709\u9650\u516c\u53f8
p119
tp120
a(g2
V\u5b89\u5fbd\u91d1\u9619\u7535\u5b50\u5546\u52a1\u6709\u9650\u516c\u53f8
p121
tp122
a(g2
V\u5b89\u5fbd\u5b89\u90a6\u6587\u5316\u4f20\u64ad\u6709\u9650\u516c\u53f8
p123
tp124
a(g2
V\u5408\u80a5\u8fdb\u4e30\u5546\u8d38\u6709\u9650\u516c\u53f8
p125
tp126
a(g2
V\u5b89\u5fbd\u4f73\u6c83\u65af\u5bb6\u5c45\u7528\u54c1\u6709\u9650\u516c\u53f8
p127
tp128
a(g2
V\u5b89\u5fbd\u5b89\u9ed8\u51ef\u5c14\u5a74\u7ae5\u7528\u54c1\u6709\u9650\u516c\u53f8
p129
tp130
a(g2
V\u5408\u80a5\u6c49\u6c83\u65e5\u7528\u54c1\u6709\u9650\u516c\u53f8
p131
tp132
a(g2
V\u5408\u80a5\u4e07\u666f\u745e\u5546\u8d38\u6709\u9650\u516c\u53f8
p133
tp134
a(g2
V\u5408\u80a5\u82f1\u5409\u5229\u751f\u7269\u79d1\u6280\u6709\u9650\u516c\u53f8
p135
tp136
a(g2
V\u5408\u80a5\u519b\u654f\u73af\u4fdd\u79d1\u6280\u6709\u9650\u516c\u53f8
p137
tp138
a(g2
V\u5408\u80a5\u7231\u777f\u535a\u6bcd\u5a74\u7528\u54c1\u9500\u552e\u6709\u9650\u516c\u53f8
p139
tp140
a(g2
V\u5408\u80a5\u6dd8\u79d1\u7f51\u7edc\u79d1\u6280\u6709\u9650\u516c\u53f8
p141
tp142
a(g2
V\u5408\u80a5\u65b0\u97e9\u534e\u7535\u5b50\u79d1\u6280\u6709\u9650\u516c\u53f8
p143
tp144
a(g2
V\u5408\u80a5\u4f17\u7fd4\u7535\u5b50\u6280\u672f\u6709\u9650\u516c\u53f8
p145
tp146
a(g2
V\u5408\u80a5\u714c\u7ee7\u8d38\u6613\u6709\u9650\u516c\u53f8
p147
tp148
a(g2
V\u5408\u80a5\u5e02\u6b65\u9f0e\u5546\u8d38\u6709\u9650\u516c\u53f8
p149
tp150
a(g2
V\u5b89\u5fbd\u8fce\u5ba2\u677e\u7535\u5b50\u5546\u52a1\u6709\u9650\u516c\u53f8
p151
tp152
a(g2
V\u5408\u80a5\u5143\u6e90\u4ea8\u5546\u8d38\u6709\u9650\u516c\u53f8
p153
tp154
a(g2
V\u5408\u80a5\u6cf0\u8d35\u5546\u8d38\u6709\u9650\u516c\u53f8
p155
tp156
a(g2
V\u5b89\u5fbd\u4e16\u5f69\u7535\u5b50\u5546\u52a1\u6709\u9650\u516c\u53f8
p157
tp158
a(g2
V\u5408\u80a5\u96c5\u5370\u7535\u5b50\u5546\u52a1\u6709\u9650\u516c\u53f8
p159
tp160
a(g2
V\u5408\u80a5\u4e1c\u4e4b\u9633\u8d38\u6613\u6709\u9650\u8d23\u4efb\u516c\u53f8
p161
tp162
a(g2
V\u5408\u80a5\u9510\u4e50\u8d38\u6613\u6709\u9650\u516c\u53f8
p163
tp164
a(g2
V\u5408\u80a5\u4fe1\u672c\u7f51\u7edc\u79d1\u6280\u6709\u9650\u516c\u53f8
p165
tp166
a(g2
V\u5408\u80a5\u6728\u6728\u5154\u8d38\u6613\u6709\u9650\u516c\u53f8
p167
tp168
a(g2
V\u5408\u80a5\u4e50\u4e00\u4e50\u6587\u5316\u4f20\u5a92\u6709\u9650\u516c\u53f8
p169
tp170
a(g2
V\u7f8e\u514b\u56fd\u9645\u5bb6\u5c45\u7528\u54c1\u80a1\u4efd\u6709\u9650\u516c\u53f8\u5408\u80a5\u5206\u516c\u53f8
p171
tp172
a(g2
V\u5408\u80a5\u798f\u53ca\u5c14\u7535\u5b50\u5546\u52a1\u6709\u9650\u516c\u53f8
p173
tp174
a(g2
V\u5408\u80a5\u6c49\u6770\u5305\u88c5\u673a\u68b0\u55b7\u7801\u6709\u9650\u516c\u53f8
p175
tp176
a(g2
V\u5408\u80a5\u5e02\u601d\u742a\u5546\u8d38\u6709\u9650\u8d23\u4efb\u516c\u53f8
p177
tp178
a(g2
V\u5b89\u5fbd\u4f0a\u4e00\u7535\u5b50\u5546\u52a1\u6709\u9650\u516c\u53f8
p179
tp180
a(g2
V\u5408\u80a5\u5f00\u5730\u5546\u8d38\u6709\u9650\u516c\u53f8
p181
tp182
a(g2
V\u5b89\u5fbd\u5bb6\u559c\u7f51\u7edc\u79d1\u6280\u6709\u9650\u516c\u53f8
p183
tp184
a(g2
V\u5408\u80a5\u54c1\u7855\u5546\u8d38\u6709\u9650\u516c\u53f8
p185
tp186
a(g2
V\u5408\u80a5\u4e50\u806a\u7535\u5b50\u5546\u52a1\u6709\u9650\u516c\u53f8
p187
tp188
a(g2
V\u5408\u80a5\u5c0f\u888b\u9f20\u56fe\u4e66\u6709\u9650\u516c\u53f8
p189
tp190
a(g2
V\u5408\u80a5\u661f\u5c1a\u7535\u5b50\u79d1\u6280\u6709\u9650\u516c\u53f8
p191
tp192
a(g2
V\u5408\u80a5\u6c5f\u9e92\u8d38\u6613\u6709\u9650\u516c\u53f8
p193
tp194
a(g2
V\u5408\u80a5\u6735\u513f\u4e50\u7535\u5b50\u5546\u52a1\u6709\u9650\u516c\u53f8
p195
tp196
a(g2
V\u5408\u80a5\u6735\u742a\u5546\u8d38\u6709\u9650\u516c\u53f8
p197
tp198
a(g2
V\u5408\u80a5\u6b27\u5353\u529e\u516c\u5546\u8d38\u6709\u9650\u516c\u53f8
p199
tp200
a(g2
V\u5408\u80a5\u7696\u5b9d\u96c6\u56e2\u5e8a\u57ab\u6709\u9650\u516c\u53f8
p201
tp202
a(g2
V\u5408\u80a5\u7f51\u817e\u8d38\u6613\u6709\u9650\u516c\u53f8
p203
tp204
a(g2
V\u5408\u80a5\u58f9\u5b9d\u79d1\u6280\u53d1\u5c55\u6709\u9650\u516c\u53f8
p205
tp206
a(g2
V\u5408\u80a5\u4f18\u5065\u751f\u7269\u79d1\u6280\u6709\u9650\u516c\u53f8
p207
tp208
a(g2
V\u5408\u80a5\u9020\u68a6\u7f51\u7edc\u79d1\u6280\u6709\u9650\u516c\u53f8
p209
tp210
a(g2
V\u5408\u80a5\u8bd7\u8fbe\u4f18\u7535\u5b50\u5546\u52a1\u6709\u9650\u516c\u53f8
p211
tp212
a(g2
V\u5408\u80a5\u9e23\u5982\u5546\u8d38\u6709\u9650\u516c\u53f8
p213
tp214
a(g2
V\u5408\u80a5\u5178\u91d1\u8d38\u6613\u6709\u9650\u516c\u53f8
p215
tp216
a(g2
V\u5408\u80a5\u5361\u7c73\u9732\u5546\u8d38\u6709\u9650\u516c\u53f8
p217
tp218
a(g2
V\u5408\u80a5\u5988\u5988\u7231\u79d1\u6280\u6709\u9650\u516c\u53f8
p219
tp220
a(g2
V\u5408\u80a5\u7965\u53d1\u670d\u88c5\u6709\u9650\u516c\u53f8
p221
tp222
a(g2
V\u5b89\u5fbd\u7f51\u725b\u7535\u5b50\u5546\u52a1\u6709\u9650\u516c\u53f8
p223
tp224
a(g2
V\u5408\u80a5\u8c37\u609f\u5546\u8d38\u6709\u9650\u516c\u53f8
p225
tp226
a(g2
V\u5408\u80a5\u821e\u738b\u5546\u8d38\u6709\u9650\u516c\u53f8
p227
tp228
a(g2
V\u5408\u80a5\u590f\u4e91\u5546\u8d38\u6709\u9650\u8d23\u4efb\u516c\u53f8
p229
tp230
a(g2
V\u5408\u80a5\u7136\u6735\u7535\u5b50\u5546\u52a1\u6709\u9650\u516c\u53f8
p231
tp232
a(g2
V\u5408\u80a5\u4e03\u5b9d\u5802\u77f3\u659b\u79cd\u690d\u6709\u9650\u516c\u53f8
p233
tp234
a(g2
V\u5408\u80a5\u5174\u590d\u5546\u8d38\u6709\u9650\u516c\u53f8
p235
tp236
a(g2
V\u5408\u80a5\u677e\u7535\u7535\u5b50\u79d1\u6280\u6709\u9650\u516c\u53f8
p237
tp238
a(g2
V\u5408\u80a5\u5e02\u5305\u6cb3\u533a\u4e5d\u516d\u96f6\u98df\u54c1\u7ecf\u8425\u90e8
p239
tp240
a(g2
V\u5408\u80a5\u5e02\u4f1f\u6d01\u5546\u8d38\u6709\u9650\u516c\u53f8
p241
tp242
a(g2
V\u5b89\u5fbd\u82cf\u5a01\u5c3c\u4e9a\u670d\u9970\u6709\u9650\u516c\u53f8
p243
tp244
a(g2
V\u5b89\u5fbd\u8fea\u4f0a\u8317\u5546\u8d38\u6709\u9650\u516c\u53f8
p245
tp246
a(g2
V\u5408\u80a5\u987a\u51ef\u5546\u8d38\u6709\u9650\u516c\u53f8
p247
tp248
a(g2
V\u5408\u80a5\u6770\u62d3\u7535\u5b50\u6709\u9650\u516c\u53f8
p249
tp250
a(g2
V\u5408\u80a5\u6052\u4e50\u670d\u9970\u6709\u9650\u516c\u53f8
p251
tp252
a(g2
V\u5408\u80a5\u66fc\u65ed\u8d38\u6613\u6709\u9650\u516c\u53f8
p253
tp254
a(g2
V\u5408\u80a5\u5c0f\u6dd8\u5668\u7535\u5b50\u79d1\u6280\u6709\u9650\u516c\u53f8
p255
tp256
a(g2
V\u5408\u80a5\u8363\u8a89\u6587\u5316\u4f20\u64ad\u6709\u9650\u516c\u53f8
p257
tp258
a(g2
V\u5408\u80a5\u8363\u7535\u5b9e\u4e1a\u80a1\u4efd\u6709\u9650\u516c\u53f8
p259
tp260
a(g2
V\u5408\u80a5\u7f8e\u83f1\u96c6\u56e2\u63a7\u80a1\u6709\u9650\u516c\u53f8
p261
tp262
a(g2
V\u5408\u80a5\u8054\u8054\u9f0e\u4e1a\u673a\u68b0\u8bbe\u5907\u6709\u9650\u516c\u53f8
p263
tp264
a(g2
V\u5408\u80a5\u4f51\u6210\u5546\u8d38\u6709\u9650\u516c\u53f8
p265
tp266
a(g2
V\u5408\u80a5\u542f\u8d1d\u5546\u8d38\u6709\u9650\u516c\u53f8
p267
tp268
a(g2
V\u5b89\u5fbd\u798f\u840c\u7535\u5b50\u5546\u52a1\u6709\u9650\u516c\u53f8
p269
tp270
a(g2
V\u5b89\u5fbd\u6da6\u5fc3\u6c34\u5904\u7406\u8bbe\u5907\u6709\u9650\u516c\u53f8
p271
tp272
a(g2
V\u5408\u80a5\u96c5\u7f8e\u5a1c\u533b\u7597\u79d1\u6280\u6709\u9650\u516c\u53f8
p273
tp274
a(g2
V\u5b89\u5fbd\u683c\u62c9\u65af\u7535\u5b50\u5546\u52a1\u6709\u9650\u516c\u53f8
p275
tp276
a(g2
V\u5408\u80a5\u601d\u514b\u4e39\u5c3c\u670d\u88c5\u6709\u9650\u516c\u53f8
p277
tp278
a(g2
V\u5b89\u5fbd\u4e1c\u4e4b\u5170\u7535\u5b50\u5546\u52a1\u6709\u9650\u516c\u53f8
p279
tp280
a(g2
V\u5b89\u5fbd\u7701\u4e50\u670d\u5bb6\u5c45\u7528\u54c1\u6709\u9650\u516c\u53f8
p281
tp282
a(g2
V\u5408\u80a5\u5b89\u5bb6\u7f51\u7edc\u6709\u9650\u516c\u53f8
p283
tp284
a(g2
V\u5408\u80a5\u79d1\u5510\u901a\u4fe1\u8bbe\u5907\u6709\u9650\u516c\u53f8
p285
tp286
a(g2
V\u5408\u80a5\u542f\u7ae5\u5546\u8d38\u6709\u9650\u516c\u53f8
p287
tp288
a(g2
V\u5408\u80a5\u8363\u4e8b\u8fbe\u51b7\u67dc\u5236\u9020\u6709\u9650\u516c\u53f8
p289
tp290
a(g2
V\u5b89\u5fbd\u8fc5\u8fea\u7f51\u7edc\u8425\u9500\u7b56\u5212\u6709\u9650\u516c\u53f8
p291
tp292
a(g2
V\u5408\u80a5\u51ac\u8574\u5546\u8d38\u6709\u9650\u516c\u53f8
p293
tp294
a(g2
V\u5408\u80a5\u535a\u5c3c\u8fbe\u79d1\u6280\u6709\u9650\u516c\u53f8
p295
tp296
a(g2
V\u5408\u80a5\u51e1\u5a01\u8d38\u6613\u6709\u9650\u516c\u53f8
p297
tp298
a(g2
V\u5408\u80a5\u5e02\u91d1\u5bcc\u4e3d\u5546\u8d38\u6709\u9650\u516c\u53f8
p299
tp300
a(g2
V\u5b89\u5fbd\u5c0a\u8d35\u7535\u5668\u96c6\u56e2\u6709\u9650\u516c\u53f8
p301
tp302
a(g2
V\u5408\u80a5\u65af\u4f70\u8d38\u6613\u6709\u9650\u516c\u53f8
p303
tp304
a(g2
V\u5408\u80a5\u9614\u6b65\u5a74\u7ae5\u7528\u54c1\u6709\u9650\u516c\u53f8
p305
tp306
a(g2
V\u5408\u80a5\u9177\u840c\u7535\u5b50\u79d1\u6280\u6709\u9650\u516c\u53f8
p307
tp308
a(g2
V\u5408\u80a5\u9ed1\u725b\u7535\u5b50\u5546\u52a1\u6709\u9650\u516c\u53f8
p309
tp310
a(g2
V\u5408\u80a5\u5a01\u5ba2\u5546\u8d38\u6709\u9650\u516c\u53f8
p311
tp312
a(g2
V\u5408\u80a5\u6b63\u79be\u5546\u8d38\u6709\u9650\u516c\u53f8
p313
tp314
a(g2
V\u5408\u80a5\u8363\u4e8b\u8fbe\u5c0f\u5bb6\u7535\u6709\u9650\u516c\u53f8
p315
tp316
a(g2
V\u5408\u80a5\u827e\u73c2\u670d\u9970\u6709\u9650\u8d23\u4efb\u516c\u53f8
p317
tp318
a(g2
V\u5408\u80a5\u83b1\u8fbe\u5546\u8d38\u6709\u9650\u516c\u53f8
p319
tp320
a(g2
V\u5b89\u5fbd\u89c5\u98ce\u5c0f\u8681\u7535\u5b50\u5546\u52a1\u6709\u9650\u516c\u53f8
p321
tp322
a(g2
V\u5408\u80a5\u521b\u8da3\u7535\u5b50\u79d1\u6280\u6709\u9650\u516c\u53f8
p323
tp324
a(g2
V\u5b89\u5fbd\u7701\u7fc1\u683c\u739b\u5229\u79d1\u6280\u6709\u9650\u516c\u53f8
p325
tp326
a(g2
V\u5408\u80a5\u5de7\u7075\u82b8\u5546\u8d38\u6709\u9650\u516c\u53f8
p327
tp328
a(g2
V\u5408\u80a5\u7eff\u68ee\u6797\u5546\u8d38\u6709\u9650\u516c\u53f8
p329
tp330
a(g2
V\u5408\u80a5\u5e02\u8d1d\u82f1\u5353\u6bcd\u5a74\u7528\u54c1\u6709\u9650\u516c\u53f8
p331
tp332
a(g2
V\u5408\u80a5\u831c\u5361\u5496\u5561\u98df\u54c1\u6709\u9650\u516c\u53f8
p333
tp334
a(g2
V\u5b89\u5fbd\u4e50\u9526\u8bb0\u98df\u54c1\u6709\u9650\u516c\u53f8
p335
tp336
a(g2
V\u5408\u80a5\u8be5\u9541\u4e9a\u8d38\u6613\u6709\u9650\u516c\u53f8
p337
tp338
a(g2
V\u5b89\u5fbd\u53e4\u4e95\u4e91\u5546\u7535\u5b50\u5546\u52a1\u6709\u9650\u516c\u53f8
p339
tp340
a(g2
V\u5408\u80a5\u534e\u5929\u4e2d\u4e1a\u7535\u5b50\u79d1\u6280\u6709\u9650\u8d23\u4efb\u516c\u53f8
p341
tp342
a(g2
V\u5408\u80a5\u745e\u6d3e\u7535\u5b50\u79d1\u6280\u6709\u9650\u516c\u53f8
p343
tp344
a(g2
V\u5408\u80a5\u7476\u6d77\u533a\u597d\u9c9c\u6c47\u98df\u54c1\u7ecf\u8425\u90e8
p345
tp346
a(g2
V\u5408\u80a5\u5e02\u660e\u78ca\u7f51\u7edc\u79d1\u6280\u6709\u9650\u516c\u53f8
p347
tp348
a(g2
V\u5408\u80a5\u9f99\u5cfb\u7535\u5b50\u5546\u52a1\u6709\u9650\u516c\u53f8
p349
tp350
a(g2
V\u5408\u80a5\u51a0\u541b\u5546\u8d38\u6709\u9650\u516c\u53f8
p351
tp352
a(g2
V\u5b89\u5fbd\u4e66\u8363\u5546\u8d38\u6709\u9650\u516c\u53f8
p353
tp354
a(g2
V\u5408\u80a5\u9b45\u529b\u6cc9\u7535\u5b50\u5546\u52a1\u6709\u9650\u516c\u53f8
p355
tp356
a(g2
V\u5b89\u5fbd\u60a6\u7f8e\u7f51\u7edc\u79d1\u6280\u6709\u9650\u516c\u53f8
p357
tp358
a(g2
V\u5408\u80a5\u8bfa\u96c5\u4e50\u5668\u6709\u9650\u516c\u53f8
p359
tp360
a(g2
V\u5408\u80a5\u5353\u989c\u5546\u8d38\u6709\u9650\u516c\u53f8
p361
tp362
a(g2
V\u5b89\u5fbd\u81fb\u548c\u5546\u8d38\u6709\u9650\u516c\u53f8
p363
tp364
a(g2
V\u5408\u80a5\u7115\u5f69\u5546\u8d38\u6709\u9650\u516c\u53f8
p365
tp366
a(g2
V\u5408\u80a5\u7fa4\u8dc3\u98df\u54c1\u6709\u9650\u8d23\u4efb\u516c\u53f8
p367
tp368
a(g2
V\u5b89\u5fbd\u7d2b\u5b87\u697c\u5bb6\u5177\u6709\u9650\u516c\u53f8
p369
tp370
a(g2
V\u5408\u80a5\u4e07\u6c47\u4f53\u80b2\u7528\u54c1\u6709\u9650\u516c\u53f8
p371
tp372
a(g2
V\u5408\u80a5\u52c7\u8bda\u5546\u8d38\u6709\u9650\u516c\u53f8
p373
tp374
a(g2
V\u5408\u80a5\u6c90\u5e0c\u5546\u8d38\u6709\u9650\u516c\u53f8
p375
tp376
a(g2
V\u5408\u80a5\u6377\u62d3\u5546\u8d38\u6709\u9650\u516c\u53f8
p377
tp378
a(g2
V\u5408\u80a5\u5e02\u82b1\u82b1\u7684\u8336\u79d1\u6280\u6709\u9650\u8d23\u4efb\u516c\u53f8
p379
tp380
a(g2
V\u5408\u80a5\u6301\u60c5\u5546\u8d38\u6709\u9650\u516c\u53f8
p381
tp382
a(g2
V\u5408\u80a5\u5ced\u58c1\u5546\u8d38\u6709\u9650\u516c\u53f8
p383
tp384
a(g2
V\u5408\u80a5\u4e5d\u7f8e\u5546\u8d38\u6709\u9650\u516c\u53f8
p385
tp386
a(g2
V\u5408\u80a5\u5c1a\u672c\u5546\u8d38\u6709\u9650\u516c\u53f8
p387
tp388
a(g2
V\u5408\u80a5\u817e\u8fc8\u5546\u8d38\u6709\u9650\u516c\u53f8
p389
tp390
a(g2
V\u5408\u80a5\u751c\u9975\u5546\u8d38\u6709\u9650\u516c\u53f8
p391
tp392
a(g2
V\u5408\u80a5\u70c8\u7130\u5546\u8d38\u6709\u9650\u516c\u53f8
p393
tp394
a(g2
V\u5b89\u5fbd\u4e7e\u8d8a\u6295\u8d44\u80a1\u4efd\u6709\u9650\u516c\u53f8
p395
tp396
a(g2
V\u5b89\u5fbd\u65b0\u7ecf\u5178\u56fe\u4e66\u6709\u9650\u516c\u53f8
p397
tp398
a(g2
V\u5408\u80a5\u9752\u68a7\u670d\u9970\u6709\u9650\u516c\u53f8
p399
tp400
a(g2
V\u5b89\u5fbd\u7701\u5409\u5229\u7434\u884c\u6709\u9650\u516c\u53f8
p401
tp402
a(g2
V\u5408\u80a5\u7504\u4e4b\u5bb6\u7535\u5b50\u5546\u52a1\u6709\u9650\u516c\u53f8
p403
tp404
a(g2
V\u5408\u80a5\u6668\u8f69\u7535\u5668\u6709\u9650\u516c\u53f8
p405
tp406
a(g2
V\u5408\u80a5\u5e73\u539f\u56fe\u4e66\u6709\u9650\u516c\u53f8
p407
tp408
a(g2
V\u5b89\u5fbd\u9996\u8d2d\u7535\u5b50\u5546\u52a1\u6709\u9650\u516c\u53f8
p409
tp410
a(g2
V\u5408\u80a5\u7f57\u6210\u7535\u5b50\u5546\u52a1\u6709\u9650\u516c\u53f8
p411
tp412
a(g2
V\u80a5\u897f\u53bf\u6843\u82b1\u5de5\u4e1a\u56ed\u8def\u5c1a\u8336\u5e84
p413
tp414
a(g2
V\u5408\u80a5\u81ea\u6e38\u9a91\u5175\u6237\u5916\u7528\u54c1\u6709\u9650\u516c\u53f8
p415
tp416
a(g2
V\u5b89\u5fbd\u4e09\u5341\u4e8c\u5929\u6587\u5316\u4f20\u5a92\u6709\u9650\u516c\u53f8
p417
tp418
a(g2
V\u4e2d\u56fd\u7535\u4fe1\u80a1\u4efd\u6709\u9650\u516c\u53f8\u5408\u80a5\u5206\u516c\u53f8
p419
tp420
a(g2
V\u5408\u80a5\u76ca\u54c1\u56ed\u8d38\u6613\u6709\u9650\u516c\u53f8
p421
tp422
a(g2
V\u5b89\u5fbd\u4e45\u4e1a\u5bb6\u7535\u6709\u9650\u516c\u53f8
p423
tp424
a(g2
V\u5ba2\u6765\u798f\u5bb6\u5c45\u80a1\u4efd\u6709\u9650\u516c\u53f8
p425
tp426
a(g2
V\u5b89\u5fbd\u597d\u6ce2\u56fd\u9645\u5185\u8863\u6709\u9650\u516c\u53f8\u56db\u5341\u4e94\u5e97
p427
tp428
a(g2
V\u5408\u80a5\u6db5\u4eae\u5546\u8d38\u6709\u9650\u516c\u53f8
p429
tp430
a(g2
V\u5408\u80a5\u90a6\u5a01\u5546\u8d38\u6709\u9650\u516c\u53f8
p431
tp432
a(g2
V\u5b89\u5fbd\u56fd\u751f\u7535\u5668\u6709\u9650\u8d23\u4efb\u516c\u53f8\u52a0\u4fa8\u5e7f\u573a\u5e97
p433
tp434
a(g2
V\u5408\u80a5\u6b27\u51a0\u5bb6\u4ff1\u6709\u9650\u516c\u53f8
p435
tp436
a(g2
V\u5b89\u5fbd\u8d3a\u5b89\u7535\u5b50\u5546\u52a1\u6709\u9650\u516c\u53f8
p437
tp438
a(g2
V\u5408\u80a5\u9756\u6052\u6c7d\u8f66\u7528\u54c1\u6709\u9650\u516c\u53f8
p439
tp440
a(g2
V\u5b89\u5fbd\u632f\u4e7e\u6587\u5316\u4f20\u5a92\u6709\u9650\u516c\u53f8
p441
tp442
a(g2
V\u5b89\u5fbd\u8c0a\u745e\u54c1\u51e1\u5546\u8d38\u6709\u9650\u516c\u53f8
p443
tp444
a(g2
V\u80a5\u897f\u53bf\u4e09\u6cb3\u6c34\u4e61\u5723\u971e\u9152\u5382\uff08\u666e\u901a\u5408\u4f19\uff09
p445
tp446
a(g2
V\u5408\u80a5\u94f6\u6c49\u7535\u5b50\u5546\u52a1\u6709\u9650\u516c\u53f8
p447
tp448
a(g2
V\u5408\u80a5\u957f\u98ce\u7834\u6d6a\u5546\u8d38\u6709\u9650\u516c\u53f8
p449
tp450
a(g2
V\u5408\u80a5\u76c8\u521b\u7535\u5b50\u6709\u9650\u516c\u53f8
p451
tp452
a(g2
V\u5408\u80a5\u56fe\u7965\u670d\u9970\u6709\u9650\u516c\u53f8
p453
tp454
a(g2
V\u5408\u80a5\u8a89\u65b0\u540c\u5546\u8d38\u6709\u9650\u516c\u53f8
p455
tp456
a(g2
V\u5408\u80a5\u7c73\u96f7\u5546\u8d38\u6709\u9650\u516c\u53f8
p457
tp458
a(g2
V\u5408\u80a5\u5e02\u5c1a\u5370\u5316\u5986\u54c1\u6709\u9650\u8d23\u4efb\u516c\u53f8
p459
tp460
a(g2
V\u5408\u80a5\u6dd8\u6d77\u7f51\u7edc\u8425\u9500\u7b56\u5212\u6709\u9650\u516c\u53f8
p461
tp462
a(g2
V\u5408\u80a5\u548c\u5cfb\u4e30\u5546\u8d38\u6709\u9650\u516c\u53f8
p463
tp464
a(g2
V\u5408\u80a5\u6d69\u535a\u7535\u5b50\u5546\u52a1\u6709\u9650\u516c\u53f8
p465
tp466
a(g2
V\u5408\u80a5\u9510\u6717\u5546\u8d38\u6709\u9650\u516c\u53f8
p467
tp468
a(g2
V\u5b89\u5fbd\u4e16\u6210\u79d1\u6280\u6709\u9650\u516c\u53f8
p469
tp470
a(g2
V\u5b89\u5fbd\u5475\u5b9d\u513f\u7ae5\u7528\u54c1\u6709\u9650\u516c\u53f8
p471
tp472
a(g2
V\u5408\u80a5\u5706\u6ee1\u5546\u8d38\u6709\u9650\u516c\u53f8
p473
tp474
a(g2
V\u5408\u80a5\u767e\u6b66\u897f\u8d38\u6613\u6709\u9650\u516c\u53f8
p475
tp476
a(g2
V\u5408\u80a5\u701a\u8fea\u8d38\u6613\u6709\u9650\u516c\u53f8
p477
tp478
a(g2
V\u5408\u80a5\u8fb0\u5b9d\u670d\u9970\u6709\u9650\u516c\u53f8
p479
tp480
a(g2
V\u5b89\u5fbd\u5e1b\u56fe\u8d38\u6613\u6709\u9650\u516c\u53f8
p481
tp482
a(g2
V\u5408\u80a5\u6770\u5c55\u5546\u8d38\u6709\u9650\u516c\u53f8
p483
tp484
a(g2
V\u5b89\u5fbd\u592a\u53e4\u673a\u7535\u8bbe\u5907\u6709\u9650\u516c\u53f8
p485
tp486
a(g2
V\u5408\u80a5\u91c7\u679c\u5546\u8d38\u6709\u9650\u516c\u53f8
p487
tp488
a(g2
V\u5408\u80a5\u718a\u5927\u5546\u8d38\u6709\u9650\u516c\u53f8
p489
tp490
a(g2
V\u5b89\u5fbd\u5929\u661f\u836f\u623f\u8fde\u9501\u6709\u9650\u516c\u53f8
p491
tp492
a(g2
V\u5b89\u5fbd\u5c0f\u4ed9\u72d0\u7535\u5b50\u5546\u52a1\u6709\u9650\u516c\u53f8
p493
tp494
a(g2
V\u5408\u80a5\u665f\u540d\u4fe1\u606f\u6280\u672f\u6709\u9650\u516c\u53f8
p495
tp496
a(g2
V\u5408\u80a5\u5c0f\u5b69\u5b50\u5546\u8d38\u6709\u9650\u516c\u53f8
p497
tp498
a(g2
V\u5408\u80a5\u963f\u5e86\u5546\u8d38\u6709\u9650\u516c\u53f8
p499
tp500
a(g2
V\u5408\u80a5\u6f2b\u5a1c\u7f51\u7edc\u79d1\u6280\u6709\u9650\u516c\u53f8
p501
tp502
a(g2
V\u5408\u80a5\u547c\u5566\u5566\u7535\u5b50\u5546\u52a1\u6709\u9650\u516c\u53f8
p503
tp504
a(g2
V\u5408\u80a5\u6c49\u6d77\u6587\u5316\u4f20\u5a92\u6709\u9650\u516c\u53f8
p505
tp506
a(g2
V\u5408\u80a5\u5e02\u7ef4\u65af\u9a7c\u987f\u5546\u8d38\u6709\u9650\u516c\u53f8
p507
tp508
a(g2
V\u5408\u80a5\u534e\u8a00\u670d\u9970\u6709\u9650\u516c\u53f8
p509
tp510
a(g2
V\u5408\u80a5\u7edd\u914d\u5546\u8d38\u6709\u9650\u516c\u53f8
p511
tp512
a(g2
V\u5408\u80a5\u78ca\u78ca\u7535\u5b50\u6709\u9650\u516c\u53f8
p513
tp514
a(g2
V\u5408\u80a5\u4f18\u8513\u5546\u8d38\u6709\u9650\u516c\u53f8
p515
tp516
a(g2
V\u5408\u80a5\u70ed\u821e\u5546\u8d38\u6709\u9650\u516c\u53f8
p517
tp518
a(g2
V\u5408\u80a5\u5584\u5c0f\u5546\u8d38\u6709\u9650\u516c\u53f8
p519
tp520
a(g2
V\u5408\u80a5\u897f\u6797\u56fe\u4e66\u6709\u9650\u516c\u53f8
p521
tp522
a(g2
V\u5408\u80a5\u5353\u5e03\u65af\u8d38\u6613\u6709\u9650\u516c\u53f8
p523
tp524
a(g2
V\u5b89\u5fbd\u9b45\u805a\u5546\u8d38\u6709\u9650\u516c\u53f8
p525
tp526
a(g2
V\u5408\u80a5\u7eff\u677e\u5546\u8d38\u6709\u9650\u516c\u53f8
p527
tp528
a(g2
V\u5408\u80a5\u8da3\u591a\u591a\u8d38\u6613\u6709\u9650\u516c\u53f8
p529
tp530
a(g2
V\u5408\u80a5\u9510\u8d8a\u7535\u5b50\u5546\u52a1\u6709\u9650\u516c\u53f8
p531
tp532
a(g2
V\u5408\u80a5\u6da6\u679c\u679c\u7535\u5b50\u5546\u52a1\u6709\u9650\u516c\u53f8
p533
tp534
a(g2
V\u5408\u80a5\u6590\u7f18\u8d38\u6613\u6709\u9650\u8d23\u4efb\u516c\u53f8
p535
tp536
a(g2
V\u5408\u80a5\u4e07\u67ab\u5546\u8d38\u6709\u9650\u516c\u53f8
p537
tp538
a(g2
V\u5408\u80a5\u6b27\u4ed5\u513f\u7ae5\u7528\u54c1\u5546\u8d38\u6709\u9650\u8d23\u4efb\u516c\u53f8
p539
tp540
a(g2
V\u5b89\u5fbd\u535a\u5965\u4f53\u80b2\u7528\u54c1\u6709\u9650\u516c\u53f8
p541
tp542
a(g2
V\u5408\u80a5\u7fcc\u6dd8\u7535\u5b50\u5546\u52a1\u6709\u9650\u516c\u53f8
p543
tp544
a(g2
V\u5408\u80a5\u827e\u96c5\u670d\u9970\u6709\u9650\u8d23\u4efb\u516c\u53f8
p545
tp546
a(g2
V\u5b89\u5fbd\u9f50\u62c9\u7f8e\u5546\u8d38\u6709\u9650\u516c\u53f8
p547
tp548
a(g2
V\u5408\u80a5\u4f73\u667a\u56fe\u4e66\u6709\u9650\u516c\u53f8
p549
tp550
a(g2
V\u5b89\u5fbd\u9e3f\u9521\u5546\u8d38\u6709\u9650\u516c\u53f8
p551
tp552
a(g2
V\u5408\u80a5\u6749\u6728\u5546\u52a1\u6709\u9650\u516c\u53f8
p553
tp554
a(g2
V\u5b89\u5fbd\u7f18\u7f18\u5802\u5a74\u7ae5\u7528\u54c1\u6709\u9650\u516c\u53f8
p555
tp556
a(g2
V\u5408\u80a5\u68a6\u6e38\u4ed9\u5883\u670d\u9970\u6709\u9650\u516c\u53f8
p557
tp558
a(g2
V\u5408\u80a5\u9014\u4e07\u5546\u8d38\u6709\u9650\u516c\u53f8
p559
tp560
a(g2
V\u5408\u80a5\u6da6\u8fc8\u5546\u8d38\u6709\u9650\u516c\u53f8
p561
tp562
a(g2
V\u5408\u80a5\u827e\u53e4\u670d\u9970\u6709\u9650\u516c\u53f8
p563
tp564
a(g2
V\u5408\u80a5\u6d77\u77e5\u97f3\u4e50\u5668\u9500\u552e\u6709\u9650\u8d23\u4efb\u516c\u53f8
p565
tp566
a(g2
V\u5b89\u5fbd\u9882\u667a\u5b9e\u4e1a\u6709\u9650\u516c\u53f8
p567
tp568
a(g2
V\u5b89\u5fbd\u7696\u535a\u6587\u5316\u4f20\u64ad\u6709\u9650\u516c\u53f8
p569
tp570
a(g2
V\u5b89\u5fbd\u5b87\u822a\u6d3e\u8499\u5065\u5eb7\u79d1\u6280\u80a1\u4efd\u6709\u9650\u516c\u53f8
p571
tp572
a(g2
V\u5408\u80a5\u7f8e\u4f9d\u82ac\u670d\u9970\u6709\u9650\u516c\u53f8
p573
tp574
a(g2
V\u5b89\u5fbd\u98ce\u632f\u7f51\u7edc\u79d1\u6280\u6709\u9650\u516c\u53f8
p575
tp576
a(g2
V\u5408\u80a5\u65ed\u6613\u8d38\u6613\u6709\u9650\u516c\u53f8
p577
tp578
a(g2
V\u5408\u80a5\u8fc8\u5df4\u5974\u670d\u88c5\u6709\u9650\u516c\u53f8
p579
tp580
a(g2
V\u5408\u80a5\u58a8\u83f2\u5bb6\u5c45\u7528\u54c1\u6709\u9650\u516c\u53f8
p581
tp582
a(g2
V\u5408\u80a5\u6c90\u6f9c\u6e05\u5546\u8d38\u6709\u9650\u516c\u53f8
p583
tp584
a(g2
V\u5408\u80a5\u5a01\u7855\u5546\u8d38\u6709\u9650\u516c\u53f8
p585
tp586
a(g2
V\u5408\u80a5\u5929\u4ebf\u7f8e\u7535\u5b50\u5546\u52a1\u6709\u9650\u516c\u53f8
p587
tp588
a(g2
V\u5b89\u5fbd\u83f2\u7ec5\u8c6a\u65af\u670d\u9970\u6709\u9650\u516c\u53f8
p589
tp590
a(g2
V\u5408\u80a5\u6995\u6811\u7f51\u7edc\u79d1\u6280\u6709\u9650\u516c\u53f8
p591
tp592
a(g2
V\u5b89\u5fbd\u7f8e\u5c14\u8010\u65f6\u5c1a\u5bb6\u5c45\u906e\u9633\u54c1\u5236\u9020\u6709\u9650\u516c\u53f8
p593
tp594
a(g2
V\u5e90\u6c5f\u53bf\u67ef\u5766\u9547\u4f18\u8863\u8d1d\u513f\u670d\u88c5\u5546\u884c
p595
tp596
a(g2
V\u5408\u80a5\u5806\u96ea\u4eba\u670d\u88c5\u8d38\u6613\u6709\u9650\u516c\u53f8
p597
tp598
a(g2
V\u5408\u80a5\u6a2a\u6ea2\u6587\u5316\u4f20\u5a92\u6709\u9650\u516c\u53f8
p599
tp600
a(g2
V\u5408\u80a5\u5b87\u5988\u5546\u8d38\u6709\u9650\u516c\u53f8
p601
tp602
a(g2
V\u5b89\u5fbd\u5bcc\u5b81\u7535\u529b\u8bbe\u5907\u6709\u9650\u516c\u53f8
p603
tp604
a(g2
V\u5408\u80a5\u68a6\u8d77\u822a\u5546\u8d38\u6709\u9650\u516c\u53f8
p605
tp606
a(g2
V\u5b89\u5fbd\u4fe1\u5c14\u8054\u4fe1\u606f\u79d1\u6280\u6709\u9650\u516c\u53f8
p607
tp608
a(g2
V\u5b89\u5fbd\u4f70\u901a\u6559\u80b2\u79d1\u6280\u53d1\u5c55\u6709\u9650\u516c\u53f8
p609
tp610
a(g2
V\u5408\u80a5\u6625\u6da6\u5982\u6b4c\u7535\u5b50\u5546\u52a1\u6709\u9650\u516c\u53f8
p611
tp612
a(g2
V\u5408\u80a5\u989c\u5189\u5546\u8d38\u6709\u9650\u516c\u53f8
p613
tp614
a(g2
V\u5b89\u5fbd\u5eb7\u6b23\u7535\u5668\u6709\u9650\u516c\u53f8
p615
tp616
a(g2
V\u5408\u80a5\u8bfa\u65af\u6717\u8d38\u6613\u6709\u9650\u516c\u53f8
p617
tp618
a(g2
V\u5408\u80a5\u5927\u6668\u5546\u8d38\u6709\u9650\u516c\u53f8
p619
tp620
a(g2
V\u5408\u80a5\u56fd\u6865\u5bb6\u5c45\u7528\u54c1\u6709\u9650\u516c\u53f8
p621
tp622
a(g2
V\u5408\u80a5\u6c49\u4e16\u8d38\u6613\u6709\u9650\u516c\u53f8
p623
tp624
a(g2
V\u5408\u80a5\u95ea\u514b\u7535\u5b50\u79d1\u6280\u6709\u9650\u516c\u53f8
p625
tp626
a(g2
V\u5b89\u5fbd\u8499\u897f\u8d38\u6613\u6709\u9650\u516c\u53f8
p627
tp628
a(g2
V\u5408\u80a5\u76c8\u7f8e\u7535\u5b50\u79d1\u6280\u6709\u9650\u516c\u53f8
p629
tp630
a(g2
V\u5408\u80a5\u6613\u6b63\u6587\u5316\u7528\u54c1\u6709\u9650\u516c\u53f8
p631
tp632
a(g2
V\u5408\u80a5\u5b5f\u5c1d\u56fe\u4e66\u6709\u9650\u516c\u53f8
p633
tp634
a(g2
V\u5408\u80a5\u827e\u514b\u65af\u7f51\u7edc\u79d1\u6280\u6709\u9650\u516c\u53f8
p635
tp636
a(g2
V\u5b89\u5fbd\u6c49\u79c0\u73e0\u5b9d\u6709\u9650\u516c\u53f8
p637
tp638
a(g2
V\u5408\u80a5\u76df\u6d3e\u4fe1\u606f\u79d1\u6280\u6709\u9650\u516c\u53f8
p639
tp640
a(g2
V\u5408\u80a5\u9b54\u6cd5\u5bb6\u65cf\u7535\u5b50\u5546\u52a1\u6709\u9650\u516c\u53f8
p641
tp642
a(g2
V\u5408\u80a5\u5947\u5c14\u6c47\u8d38\u6613\u6709\u9650\u516c\u53f8
p643
tp644
a(g2
V\u5408\u80a5\u5e02\u8700\u5c71\u533a\u5b87\u98de\u7535\u5b50\u5546\u884c
p645
tp646
a(g2
V\u5408\u80a5\u5f20\u963f\u5e86\u7535\u5b50\u5546\u52a1\u6709\u9650\u516c\u53f8
p647
tp648
a(g2
V\u5408\u80a5\u7855\u989c\u65e5\u5316\u9500\u552e\u6709\u9650\u516c\u53f8
p649
tp650
a(g2
V\u5408\u80a5\u4f0a\u838e\u59ae\u5546\u8d38\u6709\u9650\u516c\u53f8
p651
tp652
a(g2
V\u5408\u80a5\u598d\u7231\u98df\u54c1\u6709\u9650\u516c\u53f8
p653
tp654
a(g2
V\u5b89\u5fbd\u7701\u520a\u5929\u4e0b\u56fe\u4e66\u6709\u9650\u516c\u53f8
p655
tp656
a(g2
V\u5408\u80a5\u829d\u9ebb\u5f00\u82b1\u7f51\u7edc\u79d1\u6280\u6709\u9650\u516c\u53f8
p657
tp658
a(g2
V\u5408\u80a5\u8398\u4e4b\u8bda\u4fe1\u606f\u79d1\u6280\u6709\u9650\u516c\u53f8
p659
tp660
a(g2
V\u5408\u80a5\u65b0\u817e\u56fe\u4e66\u6709\u9650\u516c\u53f8
p661
tp662
a(g2
V\u5408\u80a5\u5361\u5947\u6811\u513f\u7ae5\u7528\u54c1\u6709\u9650\u516c\u53f8
p663
tp664
a(g2
V\u5408\u80a5\u6d77\u77f3\u670d\u9970\u6709\u9650\u516c\u53f8
p665
tp666
a(g2
V\u5b89\u5fbd\u9e9f\u660a\u5546\u8d38\u6709\u9650\u516c\u53f8
p667
tp668
a(g2
V\u5b89\u5fbd\u5496\u54c1\u6c47\u7535\u5b50\u5546\u52a1\u6709\u9650\u516c\u53f8
p669
tp670
a(g2
V\u5408\u80a5\u7231\u4f18\u5546\u8d38\u6709\u9650\u516c\u53f8
p671
tp672
a(g2
V\u5408\u80a5\u946b\u5409\u6069\u5546\u8d38\u6709\u9650\u516c\u53f8
p673
tp674
a(g2
V\u5b89\u5fbd\u7701\u541b\u5b50\u5170\u5b9e\u4e1a\u6709\u9650\u516c\u53f8
p675
tp676
a(g2
V\u5408\u80a5\u805a\u8000\u5546\u8d38\u6709\u9650\u516c\u53f8
p677
tp678
a(g2
V\u5408\u80a5\u4fe1\u9675\u9601\u56fe\u4e66\u6709\u9650\u516c\u53f8
p679
tp680
a(g2
V\u5b89\u5fbd\u6728\u4e0d\u5b50\u7535\u5b50\u5546\u52a1\u6709\u9650\u516c\u53f8
p681
tp682
a(g2
V\u5408\u80a5\u7693\u84dd\u6570\u7801\u79d1\u6280\u6709\u9650\u516c\u53f8
p683
tp684
a(g2
V\u5408\u80a5\u6625\u8bcf\u8d38\u6613\u6709\u9650\u516c\u53f8
p685
tp686
a(g2
V\u5408\u80a5\u77e5\u6839\u5546\u8d38\u6709\u9650\u8d23\u4efb\u516c\u53f8
p687
tp688
a(g2
V\u5408\u80a5\u4f73\u9633\u670d\u9970\u6709\u9650\u516c\u53f8
p689
tp690
a(g2
V\u5408\u80a5\u5f3a\u4e0e\u67d4\u5546\u8d38\u6709\u9650\u516c\u53f8
p691
tp692
a(g2
V\u5408\u80a5\u5e02\u5a01\u5c14\u90a6\u7535\u5b50\u79d1\u6280\u6709\u9650\u516c\u53f8
p693
tp694
a(g2
V\u5408\u80a5\u65e0\u9898\u5546\u8d38\u6709\u9650\u516c\u53f8
p695
tp696
a(g2
V\u5408\u80a5\u9177\u54c1\u7535\u5b50\u5546\u52a1\u6709\u9650\u516c\u53f8
p697
tp698
a(g2
V\u5408\u80a5\u82f1\u83c8\u767e\u8d27\u5546\u8d38\u6709\u9650\u516c\u53f8
p699
tp700
a(g2
V\u5408\u80a5\u53ee\u549a\u7535\u5668\u6709\u9650\u8d23\u4efb\u516c\u53f8
p701
tp702
a(g2
V\u5408\u80a5\u4fe1\u5fc3\u7535\u5b50\u79d1\u6280\u6709\u9650\u516c\u53f8
p703
tp704
a(g2
V\u5408\u80a5\u4e94\u7231\u5546\u8d38\u6709\u9650\u516c\u53f8
p705
tp706
a(g2
V\u5b89\u5fbd\u5149\u79c0\u5149\u7535\u79d1\u6280\u6709\u9650\u516c\u53f8
p707
tp708
a(g2
V\u5408\u80a5\u5c0f\u77f3\u5934\u5546\u8d38\u6709\u9650\u516c\u53f8
p709
tp710
a(g2
V\u5408\u80a5\u82ae\u5c1a\u670d\u9970\u6709\u9650\u516c\u53f8
p711
tp712
a(g2
V\u5408\u80a5\u6717\u97f3\u7535\u5b50\u79d1\u6280\u6709\u9650\u516c\u53f8
p713
tp714
a(g2
V\u5b89\u5fbd\u7533\u6167\u519c\u4e1a\u79d1\u6280\u6709\u9650\u516c\u53f8
p715
tp716
a(g2
V\u5b89\u5fbd\u7315\u7334\u6843\u7f51\u7edc\u79d1\u6280\u6709\u9650\u516c\u53f8
p717
tp718
a(g2
V\u5408\u80a5\u80af\u5c3c\u9c8d\u5c14\u8d38\u6613\u6709\u9650\u516c\u53f8
p719
tp720
a(g2
V\u5408\u80a5\u8fc5\u548c\u5546\u8d38\u6709\u9650\u8d23\u4efb\u516c\u53f8
p721
tp722
a(g2
V\u5408\u80a5\u5c0f\u6854\u5b50\u670d\u9970\u6709\u9650\u516c\u53f8
p723
tp724
a(g2
V\u5408\u80a5\u624b\u8bb0\u5546\u8d38\u6709\u9650\u516c\u53f8
p725
tp726
a(g2
V\u5408\u80a5\u5e02\u516d\u5eb7\u5546\u8d38\u6709\u9650\u516c\u53f8
p727
tp728
a(g2
V\u5408\u80a5\u57f9\u6069\u7535\u5668\u6709\u9650\u516c\u53f8
p729
tp730
a(g2
V\u5b89\u5fbd\u901f\u73c0\u8d38\u6613\u6709\u9650\u516c\u53f8
p731
tp732
a(g2
V\u5408\u80a5\u7c73\u725b\u7535\u5668\u6709\u9650\u516c\u53f8
p733
tp734
a(g2
V\u5408\u80a5\u4f9d\u6db5\u8d38\u6613\u6709\u9650\u516c\u53f8
p735
tp736
a(g2
V\u5408\u80a5\u66f2\u98ce\u7f51\u7edc\u79d1\u6280\u6709\u9650\u516c\u53f8
p737
tp738
a(g2
V\u5408\u80a5\u5e02\u9510\u8d85\u5546\u8d38\u6709\u9650\u8d23\u4efb\u516c\u53f8
p739
tp740
a(g2
V\u5408\u80a5\u8fbe\u7c73\u5c3c\u7535\u6c14\u79d1\u6280\u6709\u9650\u516c\u53f8
p741
tp742
a(g2
V\u5408\u80a5\u4fca\u6797\u5546\u8d38\u6709\u9650\u516c\u53f8
p743
tp744
a(g2
V\u5408\u80a5\u9ea6\u5df4\u7535\u5b50\u79d1\u6280\u6709\u9650\u516c\u53f8
p745
tp746
a(g2
V\u5408\u80a5\u5929\u4e4b\u4e50\u5bb6\u5c45\u7528\u54c1\u6709\u9650\u516c\u53f8
p747
tp748
a(g2
V\u5408\u80a5\u68a6\u4e4b\u5bb6\u5546\u8d38\u6709\u9650\u516c\u53f8
p749
tp750
a(g2
V\u5408\u80a5\u541b\u7693\u5546\u8d38\u6709\u9650\u516c\u53f8
p751
tp752
a(g2
V\u5408\u80a5\u5420\u96ea\u7535\u5b50\u5546\u52a1\u6709\u9650\u516c\u53f8
p753
tp754
a(g2
V\u5408\u80a5\u827e\u8f69\u670d\u9970\u6709\u9650\u516c\u53f8
p755
tp756
a(g2
V\u5408\u80a5\u7eff\u8d1d\u513f\u7ae5\u7528\u54c1\u6709\u9650\u516c\u53f8
p757
tp758
a(g2
V\u5408\u80a5\u65b0\u57a3\u9053\u7f51\u7edc\u79d1\u6280\u6709\u9650\u516c\u53f8
p759
tp760
a(g2
V\u5b89\u5fbd\u7701\u5fbd\u5546\u7ea2\u5e9c\u8fde\u9501\u8d85\u5e02\u6709\u9650\u8d23\u4efb\u516c\u53f8\u5408\u80a5\u5206\u516c\u53f8
p761
tp762
a(g2
V\u5408\u80a5\u52c7\u6b63\u5546\u8d38\u6709\u9650\u516c\u53f8
p763
tp764
a(g2
V\u5b89\u5fbd\u6069\u7396\u5546\u8d38\u6709\u9650\u516c\u53f8
p765
tp766
a(g2
V\u5408\u80a5\u6f6e\u8f89\u8d38\u6613\u6709\u9650\u516c\u53f8
p767
tp768
a(g2
V\u5408\u80a5\u4e50\u6211\u6240\u6dd8\u7535\u5b50\u5546\u52a1\u6709\u9650\u516c\u53f8
p769
tp770
a(g2
V\u5b89\u5fbd\u5409\u6210\u6587\u5316\u4f20\u5a92\u6709\u9650\u516c\u53f8
p771
tp772
a(g2
V\u5b89\u5fbd\u7701\u56fd\u58f0\u7434\u884c\u6709\u9650\u516c\u53f8
p773
tp774
a(g2
V\u5b89\u5fbd\u4e1c\u6c47\u767e\u5ddd\u5546\u8d38\u6709\u9650\u516c\u53f8
p775
tp776
a(g2
V\u5b89\u5fbd\u5fe0\u4fca\u98df\u54c1\u6709\u9650\u516c\u53f8
p777
tp778
a(g2
V\u5408\u80a5\u5e02\u5fbd\u8f69\u8336\u53f6\u6709\u9650\u8d23\u4efb\u516c\u53f8
p779
tp780
a(g2
V\u5408\u80a5\u98ce\u72fc\u8d38\u6613\u6709\u9650\u516c\u53f8
p781
tp782
a(g2
V\u5b89\u5fbd\u5f97\u514b\u65af\u4f01\u4e1a\u7ba1\u7406\u6709\u9650\u516c\u53f8
p783
tp784
a(g2
V\u5408\u80a5\u5e02\u6b27\u7c73\u5361\u5546\u8d38\u6709\u9650\u516c\u53f8
p785
tp786
a(g2
V\u5408\u80a5\u8018\u5fbd\u5546\u8d38\u6709\u9650\u516c\u53f8
p787
tp788
a(g2
V\u5408\u80a5\u66fc\u51e1\u8d38\u6613\u6709\u9650\u516c\u53f8
p789
tp790
a(g2
V\u5408\u80a5\u7f9a\u7f8a\u5546\u8d38\u6709\u9650\u8d23\u4efb\u516c\u53f8
p791
tp792
a(g2
V\u5b89\u5fbd\u5b9c\u6da6\u8bd7\u5bb6\u5c45\u7528\u54c1\u6709\u9650\u516c\u53f8
p793
tp794
a(g2
V\u5408\u80a5\u4e94\u5341\u5f26\u7535\u5b50\u5546\u52a1\u6709\u9650\u516c\u53f8
p795
tp796
a(g2
V\u5408\u80a5\u683c\u7f8e\u7535\u5668\u6709\u9650\u8d23\u4efb\u516c\u53f8
p797
tp798
a(g2
V\u5408\u80a5\u5de6\u53f3\u5316\u5986\u54c1\u6709\u9650\u516c\u53f8
p799
tp800
a(g2
V\u5b89\u5fbd\u9547\u5317\u7535\u5b50\u5546\u52a1\u6709\u9650\u516c\u53f8
p801
tp802
a(g2
V\u5b89\u5fbd\u5b89\u4e30\u745e\u4e16\u7535\u5b50\u79d1\u6280\u6709\u9650\u516c\u53f8
p803
tp804
a(g2
V\u5408\u80a5\u53cb\u5929\u6587\u5316\u4f20\u64ad\u6709\u9650\u516c\u53f8
p805
tp806
a(g2
V\u5408\u80a5\u8303\u831c\u739f\u670d\u9970\u6709\u9650\u516c\u53f8
p807
tp808
a(g2
V\u5408\u80a5\u4e2d\u77e5\u6d77\u6559\u80b2\u79d1\u6280\u6709\u9650\u516c\u53f8
p809
tp810
a(g2
V\u5408\u80a5\u4e5d\u6212\u5546\u8d38\u6709\u9650\u516c\u53f8
p811
tp812
a(g2
V\u5408\u80a5\u5fae\u6f9c\u670d\u9970\u6709\u9650\u516c\u53f8
p813
tp814
a(g2
V\u5408\u80a5\u739b\u5a57\u79c0\u8d38\u6613\u6709\u9650\u516c\u53f8
p815
tp816
a(g2
V\u5408\u80a5\u7f8e\u8c26\u5546\u8d38\u6709\u9650\u516c\u53f8
p817
tp818
a(g2
V\u5408\u80a5\u8428\u9177\u62c9\u5546\u8d38\u6709\u9650\u516c\u53f8
p819
tp820
a(g2
V\u5408\u80a5\u5e02\u541b\u5c1a\u5546\u8d38\u6709\u9650\u516c\u53f8
p821
tp822
a(g2
V\u5408\u80a5\u5e02\u680b\u5e2e\u7965\u5546\u8d38\u6709\u9650\u516c\u53f8
p823
tp824
a(g2
V\u5408\u80a5\u58f9\u751f\u5143\u5546\u8d38\u6709\u9650\u516c\u53f8
p825
tp826
a(g2
V\u5408\u80a5\u98de\u62d3\u670d\u9970\u6709\u9650\u516c\u53f8
p827
tp828
a(g2
V\u5408\u80a5\u7231\u65af\u5821\u513f\u5546\u8d38\u6709\u9650\u516c\u53f8
p829
tp830
a(g2
V\u5408\u80a5\u6654\u5f64\u5546\u8d38\u6709\u9650\u516c\u53f8
p831
tp832
a(g2
V\u5408\u80a5\u5a01\u805a\u6e90\u5546\u8d38\u6709\u9650\u516c\u53f8
p833
tp834
a(g2
V\u5408\u80a5\u5609\u6728\u7535\u5b50\u5546\u52a1\u6709\u9650\u516c\u53f8
p835
tp836
a(g2
V\u5408\u80a5\u6613\u8336\u5ba2\u7535\u5b50\u5546\u52a1\u6709\u9650\u516c\u53f8
p837
tp838
a(g2
V\u5408\u80a5\u9cb8\u9c7c\u8d38\u6613\u6709\u9650\u516c\u53f8
p839
tp840
a(g2
V\u5b89\u5fbd\u60a0\u8c37\u826f\u54c1\u751f\u6001\u519c\u4e1a\u79d1\u6280\u6709\u9650\u516c\u53f8
p841
tp842
a(g2
V\u5408\u80a5\u96f6\u5e73\u65b9\u5546\u8d38\u6709\u9650\u516c\u53f8
p843
tp844
a(g2
V\u5408\u80a5\u5f97\u99a8\u884c\u5546\u8d38\u6709\u9650\u516c\u53f8
p845
tp846
a(g2
V\u5408\u80a5\u946b\u83f2\u6708\u7535\u5b50\u79d1\u6280\u6709\u9650\u516c\u53f8
p847
tp848
a(g2
V\u5b89\u5fbd\u7545\u79d1\u7f51\u7edc\u79d1\u6280\u6709\u9650\u516c\u53f8
p849
tp850
a(g2
V\u5408\u80a5\u9a77\u9a6c\u5546\u8d38\u6709\u9650\u516c\u53f8
p851
tp852
a(g2
V\u5b89\u5fbd\u5f20\u4e8c\u560e\u98df\u54c1\u6709\u9650\u516c\u53f8
p853
tp854
a(g2
V\u5b89\u5fbd\u65f6\u4ee3\u51fa\u7248\u53d1\u884c\u6709\u9650\u516c\u53f8\u7535\u5b50\u5546\u52a1\u5206\u516c\u53f8
p855
tp856
a(g2
V\u5408\u80a5\u90bb\u5c14\u7f51\u7edc\u79d1\u6280\u6709\u9650\u516c\u53f8
p857
tp858
a(g2
V\u5408\u80a5\u8574\u7f8e\u7535\u5b50\u5546\u52a1\u6709\u9650\u516c\u53f8
p859
tp860
a(g2
V\u5408\u80a5\u5471\u5471\u53eb\u6587\u5316\u4f20\u64ad\u6709\u9650\u8d23\u4efb\u516c\u53f8
p861
tp862
a(g2
V\u5408\u80a5\u8fc8\u4e9a\u5bb6\u5177\u6709\u9650\u516c\u53f8
p863
tp864
a(g2
V\u5408\u80a5\u6668\u5b9d\u6570\u7801\u79d1\u6280\u6709\u9650\u516c\u53f8
p865
tp866
a(g2
V\u5408\u80a5\u5e02\u6b23\u987f\u5546\u8d38\u6709\u9650\u8d23\u4efb\u516c\u53f8
p867
tp868
a(g2
V\u5408\u80a5\u661f\u8679\u5546\u8d38\u6709\u9650\u516c\u53f8
p869
tp870
a(g2
V\u5408\u80a5\u58a8\u9163\u5546\u8d38\u6709\u9650\u516c\u53f8
p871
tp872
a(g2
V\u5408\u80a5\u65ef\u6b22\u7535\u5b50\u5546\u52a1\u6709\u9650\u516c\u53f8
p873
tp874
a(g2
V\u5408\u80a5\u4e94\u8c37\u6e90\u8d38\u6613\u6709\u9650\u516c\u53f8
p875
tp876
a(g2
V\u5b89\u5fbd\u4ee5\u5b89\u5546\u8d38\u6709\u9650\u516c\u53f8
p877
tp878
a(g2
V\u5408\u80a5\u946b\u6d3e\u8fbe\u8d38\u6613\u6709\u9650\u516c\u53f8
p879
tp880
a(g2
V\u4e2d\u79d1\u7f8e\u83f1\u4f4e\u6e29\u79d1\u6280\u80a1\u4efd\u6709\u9650\u516c\u53f8
p881
tp882
a(g2
V\u5b89\u5fbd\u5c71\u91ce\u9999\u98df\u54c1\u6709\u9650\u516c\u53f8
p883
tp884
a(g2
V\u5408\u80a5\u5bff\u6625\u8349\u5802\u56fe\u4e66\u6709\u9650\u516c\u53f8
p885
tp886
a(g2
V\u5408\u80a5\u7cd6\u679c\u718a\u5546\u8d38\u6709\u9650\u516c\u53f8
p887
tp888
a(g2
V\u5408\u80a5\u8f7b\u9633\u7535\u5b50\u5546\u52a1\u6709\u9650\u516c\u53f8
p889
tp890
a(g2
V\u5408\u80a5\u6676\u4e50\u94ed\u54c1\u7535\u5b50\u5546\u52a1\u6709\u9650\u516c\u53f8
p891
tp892
a(g2
V\u5408\u80a5\u6781\u76db\u7535\u5b50\u5546\u52a1\u6709\u9650\u516c\u53f8
p893
tp894
a(g2
V\u5408\u80a5\u97f3\u6dd8\u7535\u5b50\u6709\u9650\u516c\u53f8
p895
tp896
a(g2
V\u5408\u80a5\u8363\u946b\u6c7d\u8f66\u670d\u52a1\u6709\u9650\u516c\u53f8
p897
tp898
a(g2
V\u5408\u80a5\u7396\u5609\u58f9\u5546\u8d38\u6709\u9650\u516c\u53f8
p899
tp900
a(g2
V\u5408\u80a5\u7f51\u822a\u7f51\u7edc\u79d1\u6280\u6709\u9650\u516c\u53f8
p901
tp902
a(g2
V\u5408\u80a5\u5e02\u6613\u800c\u7965\u5546\u8d38\u6709\u9650\u516c\u53f8
p903
tp904
a(g2
V\u5b89\u5fbd\u5f00\u5fc3\u4e50\u7ea2\u7cd6\u574a\u7cd6\u4e1a\u6709\u9650\u516c\u53f8
p905
tp906
a(g2
V\u5b89\u5fbd\u806a\u660e\u4ed4\u670d\u9970\u6709\u9650\u516c\u53f8
p907
tp908
a(g2
V\u5b89\u5fbd\u7fbd\u8bfa\u8d38\u6613\u6709\u9650\u516c\u53f8
p909
tp910
a(g2
V\u5408\u80a5\u5609\u51e1\u7535\u5b50\u79d1\u6280\u6709\u9650\u516c\u53f8
p911
tp912
a(g2
V\u5408\u80a5\u66f2\u540c\u5546\u8d38\u6709\u9650\u516c\u53f8
p913
tp914
a(g2
V\u5408\u80a5\u65b0\u5e15\u514b\u7f51\u7edc\u79d1\u6280\u6709\u9650\u516c\u53f8
p915
tp916
a(g2
V\u5408\u80a5\u6811\u6c11\u670d\u9970\u6709\u9650\u516c\u53f8
p917
tp918
a(g2
V\u5408\u80a5\u827e\u679c\u4f73\u5546\u8d38\u6709\u9650\u516c\u53f8
p919
tp920
a(g2
V\u5408\u80a5\u8f69\u7fd4\u5546\u8d38\u6709\u9650\u516c\u53f8
p921
tp922
a(g2
V\u5408\u80a5\u5e02\u8700\u5c71\u533a\u7ef4\u71d5\u98df\u54c1\u5546\u884c
p923
tp924
a(g2
V\u5408\u80a5\u97f3\u521b\u7535\u5b50\u79d1\u6280\u6709\u9650\u516c\u53f8
p925
tp926
a(g2
V\u5408\u80a5\u4e66\u9999\u56db\u6ea2\u56fe\u4e66\u6709\u9650\u516c\u53f8
p927
tp928
a(g2
V\u5408\u80a5\u7fd4\u76df\u7535\u5b50\u79d1\u6280\u6709\u9650\u516c\u53f8
p929
tp930
a(g2
V\u5b89\u5fbd\u56fd\u80dc\u5927\u836f\u623f\u8fde\u9501\u6709\u9650\u516c\u53f8
p931
tp932
a(g2
V\u5408\u80a5\u4e8c\u516b\u96f6\u5546\u8d38\u6709\u9650\u516c\u53f8
p933
tp934
a(g2
V\u5408\u80a5\u4e50\u97f5\u5546\u8d38\u6709\u9650\u516c\u53f8
p935
tp936
a(g2
V\u5408\u80a5\u4e07\u8fc8\u5bb6\u5c45\u7528\u54c1\u6709\u9650\u516c\u53f8
p937
tp938
a(g2
V\u5408\u80a5\u5854\u5854\u4fe1\u606f\u6280\u672f\u6709\u9650\u516c\u53f8
p939
tp940
a(g2
V\u5408\u80a5\u5e03\u4e4b\u7eaf\u5546\u8d38\u6709\u9650\u516c\u53f8
p941
tp942
a(g2
V\u5408\u80a5\u5e02\u7f8e\u5bb6\u7f8e\u6237\u88c5\u9970\u5de5\u7a0b\u6709\u9650\u516c\u53f8
p943
tp944
a(g2
V\u5408\u80a5\u5609\u805a\u8d38\u6613\u6709\u9650\u516c\u53f8
p945
tp946
a(g2
V\u5b89\u5fbd\u683c\u529b\u751f\u6d3b\u7535\u5668\u9500\u552e\u6709\u9650\u516c\u53f8
p947
tp948
a(g2
V\u5408\u80a5\u9e3f\u745e\u8ba1\u91cf\u68c0\u6d4b\u4eea\u5668\u6709\u9650\u516c\u53f8
p949
tp950
a(g2
V\u5408\u80a5\u5e02\u5e84\u5ead\u8fdb\u51fa\u53e3\u6709\u9650\u516c\u53f8
p951
tp952
a(g2
V\u5408\u80a5\u4e00\u8bd7\u5546\u8d38\u6709\u9650\u516c\u53f8
p953
tp954
a(g2
V\u5408\u80a5\u5e02\u503e\u8272\u5546\u8d38\u6709\u9650\u516c\u53f8
p955
tp956
a(g2
V\u5408\u80a5\u5c0f\u4e54\u670d\u88c5\u6709\u9650\u516c\u53f8
p957
tp958
a(g2
V\u5408\u80a5\u6c38\u79b9\u8336\u4e1a\u6709\u9650\u516c\u53f8
p959
tp960
a(g2
V\u5b89\u5fbd\u5bfb\u672a\u76ae\u5177\u6709\u9650\u516c\u53f8
p961
tp962
a.