(lp1
(S'company-id'
p2
V91340100772827032P
p3
tp4
a(g2
V913401005770596802
p5
tp6
a(g2
V91340100MA2MYLFF1K
p7
tp8
a(g2
V913401001490675962
p9
tp10
a(g2
V91340100149067617J
p11
tp12
a(g2
V91340100MA2MTNRW5M
p13
tp14
a(g2
V91340100713922232B
p15
tp16
a(g2
V91340100083691168H
p17
tp18
a(g2
V91340123MA2MT6857A
p19
tp20
a(g2
V913401000948256003
p21
tp22
a(g2
V91340100683618431J
p23
tp24
a(g2
V913401000570183912
p25
tp26
a(g2
V91340100MA2N53TE6N
p27
tp28
a(g2
V91340100MA2MTCC24M
p29
tp30
a(g2
V91340100610307130N
p31
tp32
a(g2
V913401000624524085
p33
tp34
a(g2
V91340100057041436M
p35
tp36
a(g2
V9134010009630223XK
p37
tp38
a(g2
V9134010006522171X7
p39
tp40
a(g2
V91340100394539964M
p41
tp42
a(g2
V91340111MA2NHC5171
p43
tp44
a(g2
V9134010074086076X0
p45
tp46
a(g2
V91340100694125851Q
p47
tp48
a(g2
V91340100692832309P
p49
tp50
a(g2
V91340100560663654R
p51
tp52
a(g2
V91340100085231245F
p53
tp54
a(g2
V91340100094587710Y
p55
tp56
a(g2
V91340100085245962L
p57
tp58
a(g2
V91340100750984993Y
p59
tp60
a(g2
V913401000952171219
p61
tp62
a(g2
V913401003951976604
p63
tp64
a(g2
V91340100078738208L
p65
tp66
a(g2
V91340100348737134A
p67
tp68
a(g2
V91340100661440564C
p69
tp70
a(g2
V91340100746765130P
p71
tp72
a(g2
V91340100688135033X
p73
tp74
a(g2
V9134010008757660XK
p75
tp76
a(g2
V91340100050183271K
p77
tp78
a(g2
V91340100348714928X
p79
tp80
a(g2
V91340100597064372X
p81
tp82
a(g2
V91340100060812430E
p83
tp84
a(g2
V91340100095212603M
p85
tp86
a(g2
V91340122MA2MQK6W7N
p87
tp88
a(g2
V91340100073949049M
p89
tp90
a(g2
V91340100336779951F
p91
tp92
a(g2
V91340100080323028M
p93
tp94
a(g2
V91340100072371521Y
p95
tp96
a(g2
V9134010009984689X7
p97
tp98
a(g2
V913401007668984750
p99
tp100
a(g2
V91340100072381340A
p101
tp102
a(g2
V913401000852157042
p103
tp104
a(g2
V91340100396552310B
p105
tp106
a(g2
V913401000680679730
p107
tp108
a(g2
V92340100MA2PCWU156
p109
tp110
a(g2
V91340100394467972N
p111
tp112
a(g2
V91340100396369903T
p113
tp114
a(g2
V91340100670918064B
p115
tp116
a(g2
V91340100052907915H
p117
tp118
a(g2
V91340100728526312J
p119
tp120
a(g2
V91340100395103783J
p121
tp122
a(g2
V913401005675284122
p123
tp124
a(g2
V91340100571762316E
p125
tp126
a(g2
V913401003279268768
p127
tp128
a(g2
V91340100353226451B
p129
tp130
a(g2
V91340100098202734C
p131
tp132
a(g2
V91340100570433633A
p133
tp134
a(g2
V91340100MA2N9R3F63
p135
tp136
a(g2
V91340100066527366P
p137
tp138
a(g2
V91340100099010427X
p139
tp140
a(g2
V91340100070923484K
p141
tp142
a(g2
V91340100698974770Y
p143
tp144
a(g2
V91340100068055382M
p145
tp146
a(g2
V913401005872200447
p147
tp148
a(g2
V91340100078711961T
p149
tp150
a(g2
V91340100087551621B
p151
tp152
a(g2
V91340100396125255D
p153
tp154
a(g2
V91330327559699430J
p155
tp156
a(g2
V913401003997581896
p157
tp158
a(g2
V91340100MA2MTPGU4M
p159
tp160
a(g2
V91340100559218318R
p161
tp162
a(g2
V91340100399754209N
p163
tp164
a(g2
V91340100082224461U
p165
tp166
a(g2
V91340100680824061C
p167
tp168
a(g2
V913401003228024600
p169
tp170
a(g2
V9134010039410301XX
p171
tp172
a(g2
V913401000924845907
p173
tp174
a(g2
V9134010058014574X2
p175
tp176
a(g2
V91340100562167750F
p177
tp178
a(g2
V91340100396203954N
p179
tp180
a(g2
V913401000822048310
p181
tp182
a(g2
V91340100394364607M
p183
tp184
a(g2
V913401006642232665
p185
tp186
a(g2
V91340100336851255D
p187
tp188
a(g2
V91340100093164329F
p189
tp190
a(g2
V91340100077219641E
p191
tp192
a(g2
V91340100562159830R
p193
tp194
a(g2
V91340100564968383D
p195
tp196
a(g2
V913401000557781276
p197
tp198
a(g2
V913401006662215475
p199
tp200
a(g2
V9134010014922351XA
p201
tp202
a(g2
V91340100568996963Y
p203
tp204
a(g2
V91340100322772214F
p205
tp206
a(g2
V91340100322806891R
p207
tp208
a(g2
V913401000501955630
p209
tp210
a(g2
V913401005757343122
p211
tp212
a(g2
V91340100691075473U
p213
tp214
a(g2
V913401005815230605
p215
tp216
a(g2
V91340100595718766U
p217
tp218
a(g2
V91340100568956099J
p219
tp220
a(g2
V914105003268720014
p221
tp222
a(g2
V91340100087566487L
p223
tp224
a(g2
V91340100325504186W
p225
tp226
a(g2
V9134010039580781XG
p227
tp228
a(g2
V913401005757437290
p229
tp230
a(g2
V913401000987761990
p231
tp232
a(g2
V91340100075615982P
p233
tp234
a(g2
V913401005757251416
p235
tp236
a(g2
V91340100051455224W
p237
tp238
a(g2
V92340111MA2Q48278R
p239
tp240
a(g2
V91340100097871127T
p241
tp242
a(g2
V91340100395697884T
p243
tp244
a(g2
V91340100395698684N
p245
tp246
a(g2
V913401006642236029
p247
tp248
a(g2
V91340100597075012M
p249
tp250
a(g2
V91340100328027610A
p251
tp252
a(g2
V91340100083672725X
p253
tp254
a(g2
V91340100055773238U
p255
tp256
a(g2
V91340100667900998M
p257
tp258
a(g2
V91340100052913389X
p259
tp260
a(g2
V913401001491855336
p261
tp262
a(g2
V91340100575741053A
p263
tp264
a(g2
V91340100087572422R
p265
tp266
a(g2
V91340100325454297T
p267
tp268
a(g2
V91340100394513756L
p269
tp270
a(g2
V91340100574418895F
p271
tp272
a(g2
V91340100068080510N
p273
tp274
a(g2
V913401000973334333
p275
tp276
a(g2
V91340100575725483H
p277
tp278
a(g2
V91340100MA2NWNTX38
p279
tp280
a(g2
V913401000955231610
p281
tp282
a(g2
V91340100682093338N
p283
tp284
a(g2
V913401006868872901
p285
tp286
a(g2
V9134010009286207XY
p287
tp288
a(g2
V9134012158613518XY
p289
tp290
a(g2
V913401005986885314
p291
tp292
a(g2
V913401003990560211
p293
tp294
a(g2
V91340100MA2MRB5G01
p295
tp296
a(g2
V91340103588886761J
p297
tp298
a(g2
V91340100691058307H
p299
tp300
a(g2
V913401007865435757
p301
tp302
a(g2
V913401000608493642
p303
tp304
a(g2
V91340100058451285L
p305
tp306
a(g2
V913401003368045638
p307
tp308
a(g2
V913401000756235527
p309
tp310
a(g2
V91340100066539551Q
p311
tp312
a(g2
V913401005621933690
p313
tp314
a(g2
V913401217608446284
p315
tp316
a(g2
V91340100550183294P
p317
tp318
a(g2
V91340100060832538C
p319
tp320
a(g2
V91340122MA2MT93G34
p321
tp322
a(g2
V91340100MA2N03X93J
p323
tp324
a(g2
V91340100399758939E
p325
tp326
a(g2
V91340100MA2MY05AXU
p327
tp328
a(g2
V91340100686899080T
p329
tp330
a(g2
V913401000636163202
p331
tp332
a(g2
V91340122674230005G
p333
tp334
a(g2
V91340122750966429Q
p335
tp336
a(g2
V913401000529267617
p337
tp338
a(g2
V91340100MA2MYEDQXW
p339
tp340
a(g2
V913401006910897794
p341
tp342
a(g2
V91340100568991580W
p343
tp344
a(g2
V
tp345
a(g2
V91340100066528748R
p346
tp347
a(g2
V91340100068092116Q
p348
tp349
a(g2
V9134010057574211XK
p350
tp351
a(g2
V91340100MA2MTFJR1U
p352
tp353
a(g2
V913401005815492798
p354
tp355
a(g2
V91340100070900717H
p356
tp357
a(g2
V91340100055769933P
p358
tp359
a(g2
V91340100567537191N
p360
tp361
a(g2
V913401003951990764
p362
tp363
a(g2
V91340100051489520M
p364
tp365
a(g2
V91340100798113628X
p366
tp367
a(g2
V91340100083650235L
p368
tp369
a(g2
V91340100566384429Y
p370
tp371
a(g2
V913401007627808594
p372
tp373
a(g2
V91340100574423336K
p374
tp375
a(g2
V913401000787444217
p376
tp377
a(g2
V91340100MA2MU9C64U
p378
tp379
a(g2
V91340100395564424E
p380
tp381
a(g2
V91340100094586486G
p382
tp383
a(g2
V913401000803152717
p384
tp385
a(g2
V91340100397668091H
p386
tp387
a(g2
V91340100564970504H
p388
tp389
a(g2
V91340100MA2MRP452W
p390
tp391
a(g2
V91340100073905206P
p392
tp393
a(g2
V91340111578513865H
p394
tp395
a(g2
V913401005872428419
p396
tp397
a(g2
V91340100394089035C
p398
tp399
a(g2
V913401007998489259
p400
tp401
a(g2
V91340102MA2RAG1L1Q
p402
tp403
a(g2
V913401000597014264
p404
tp405
a(g2
V91340100336824177E
p406
tp407
a(g2
V913401005634433583
p408
tp409
a(g2
V91340100MA2MW4THXP
p410
tp411
a(g2
V92340123MA2PEM7M4D
p412
tp413
a(g2
V913401000608427369
p414
tp415
a(g2
V913401213254423410
p416
tp417
a(g2
V91340100756813650M
p418
tp419
a(g2
V91340100698980871J
p420
tp421
a(g2
V91340100MA2N2JT412
p422
tp423
a(g2
V913401007711141452
p424
tp425
a(g2
V91340100063609358U
p426
tp427
a(g2
V9134010007090972XP
p428
tp429
a(g2
V91340100734951382G
p430
tp431
a(g2
V91340111MA2N40PQ5D
p432
tp433
a(g2
V91340100082241907E
p434
tp435
a(g2
V91340100394044179F
p436
tp437
a(g2
V91340100396013608F
p438
tp439
a(g2
V91340100MA2MYA9A27
p440
tp441
a(g2
V913401233993723745
p442
tp443
a(g2
V91340123559210885L
p444
tp445
a(g2
V913401006941397352
p446
tp447
a(g2
V913401005872202204
p448
tp449
a(g2
V913401005926721416
p450
tp451
a(g2
V913401005606942909
p452
tp453
a(g2
V91340100075614111Q
p454
tp455
a(g2
V91340100573047316D
p456
tp457
a(g2
V913401003280765783
p458
tp459
a(g2
V91340100353226603P
p460
tp461
a(g2
V91340122MA2MYDUF5D
p462
tp463
a(g2
V913401233951038983
p464
tp465
a(g2
V91340100397148811A
p466
tp467
a(g2
V91340100692294184J
p468
tp469
a(g2
V91340100695719766E
p470
tp471
a(g2
V91340100564968594W
p472
tp473
a(g2
V91340100563413909U
p474
tp475
a(g2
V91340100065244698X
p476
tp477
a(g2
V91340100355176574W
p478
tp479
a(g2
V91340100090780951B
p480
tp481
a(g2
V91340100399751438C
p482
tp483
a(g2
V913401006808434305
p484
tp485
a(g2
V91340100694135945H
p486
tp487
a(g2
V91340100396552716L
p488
tp489
a(g2
V91340100781052590E
p490
tp491
a(g2
V91340100098404969X
p492
tp493
a(g2
V91340100MA2MQJLU3M
p494
tp495
a(g2
V9134010009733302XU
p496
tp497
a(g2
V91340100564970344A
p498
tp499
a(g2
V913401005592195052
p500
tp501
a(g2
V9134010039593072X3
p502
tp503
a(g2
V913401000948295487
p504
tp505
a(g2
V913401005845831068
p506
tp507
a(g2
V9134010055015977XK
p508
tp509
a(g2
V91340111684980643D
p510
tp511
a(g2
V91340100557826408T
p512
tp513
a(g2
V9134010009616923XF
p514
tp515
a(g2
V91340100070914975H
p516
tp517
a(g2
V913401000822013233
p518
tp519
a(g2
V913401000739046849
p520
tp521
a(g2
V91340100073936336Y
p522
tp523
a(g2
V913401003951956655
p524
tp525
a(g2
V91340100060812019H
p526
tp527
a(g2
V91340100570416892Y
p528
tp529
a(g2
V91340100MA2MX4UD93
p530
tp531
a(g2
V9134010009673522XR
p532
tp533
a(g2
V91340100336700078W
p534
tp535
a(g2
V91340100698996582Q
p536
tp537
a(g2
V9134010006651109XX
p538
tp539
a(g2
V91340100661416804B
p540
tp541
a(g2
V91340100322792231P
p542
tp543
a(g2
V91340100085202380R
p544
tp545
a(g2
V91340100672645821H
p546
tp547
a(g2
V91340100077205338D
p548
tp549
a(g2
V91340100MA2MQ52H8N
p550
tp551
a(g2
V9134010055182206X9
p552
tp553
a(g2
V91340100688112034U
p554
tp555
a(g2
V91340100065227177J
p556
tp557
a(g2
V913401000529449197
p558
tp559
a(g2
V91340100096916434M
p560
tp561
a(g2
V91340100092875399H
p562
tp563
a(g2
V913401007918694731
p564
tp565
a(g2
V91340123764785848T
p566
tp567
a(g2
V91340100568959636T
p568
tp569
a(g2
V91340100556302418C
p570
tp571
a(g2
V91340100395898360C
p572
tp573
a(g2
V91340100MA2MRBQF6E
p574
tp575
a(g2
V913401005770505985
p576
tp577
a(g2
V913401000875804223
p578
tp579
a(g2
V91340100099327416U
p580
tp581
a(g2
V91340100327956493H
p582
tp583
a(g2
V913401005532760828
p584
tp585
a(g2
V91340100563437089D
p586
tp587
a(g2
V91340100677571999X
p588
tp589
a(g2
V913401003966613060
p590
tp591
a(g2
V9134010078306574X8
p592
tp593
a(g2
V
tp594
a(g2
V913401000723605829
p595
tp596
a(g2
V91340100343894472M
p597
tp598
a(g2
V9134010009980098XH
p599
tp600
a(g2
V91340100394526194X
p601
tp602
a(g2
V913401000978717091
p603
tp604
a(g2
V913401220597124676
p605
tp606
a(g2
V91340100348799458N
p607
tp608
a(g2
V913401000995007766
p609
tp610
a(g2
V91340100073930831G
p611
tp612
a(g2
V913401000787196487
p613
tp614
a(g2
V91340100077238826F
p615
tp616
a(g2
V9134010057851880XU
p617
tp618
a(g2
V91340100096557216A
p619
tp620
a(g2
V91340100059748953U
p621
tp622
a(g2
V913401000772197212
p623
tp624
a(g2
V91340100399058705H
p625
tp626
a(g2
V91340100694122220T
p627
tp628
a(g2
V91340100557817026F
p629
tp630
a(g2
V91340100336827474U
p631
tp632
a(g2
V913401005545885399
p633
tp634
a(g2
V91340100MA2MT3D426
p635
tp636
a(g2
V91340100062474367G
p637
tp638
a(g2
V913401000924866419
p639
tp640
a(g2
V91340100691087781X
p641
tp642
a(g2
V91340104568971547Q
p643
tp644
a(g2
V91340100MA2MUMMR5C
p645
tp646
a(g2
V91340100588899204B
p647
tp648
a(g2
V91340100059741639Q
p649
tp650
a(g2
V91340100085234913K
p651
tp652
a(g2
V913401005757256273
p653
tp654
a(g2
V91340100050160133T
p655
tp656
a(g2
V91340100322784290H
p657
tp658
a(g2
V91340100764751023D
p659
tp660
a(g2
V91340100090794181M
p661
tp662
a(g2
V91340100590197834G
p663
tp664
a(g2
V91340100MA2MT6HW5L
p665
tp666
a(g2
V91340100395282048F
p667
tp668
a(g2
V91340100069100157L
p669
tp670
a(g2
V91340100590183926N
p671
tp672
a(g2
V9134010074307406XT
p673
tp674
a(g2
V9134010033667288XE
p675
tp676
a(g2
V91340100336817540A
p677
tp678
a(g2
V91340100MA2MU2C812
p679
tp680
a(g2
V91340100551842036E
p681
tp682
a(g2
V91340100099806134W
p683
tp684
a(g2
V9134010070505106XR
p685
tp686
a(g2
V91340100688127033L
p687
tp688
a(g2
V913401003955015543
p689
tp690
a(g2
V913401006849903827
p691
tp692
a(g2
V91340111MA2NEC0X0L
p693
tp694
a(g2
V91340100MA2N0L738R
p695
tp696
a(g2
V91340100592695765U
p697
tp698
a(g2
V91340100322754104P
p699
tp700
a(g2
V913401005901908351
p701
tp702
a(g2
V913401000969115536
p703
tp704
a(g2
V91340100087571630Q
p705
tp706
a(g2
V91340121082235865B
p707
tp708
a(g2
V91340100MA2MWMLT6J
p709
tp710
a(g2
V913401005663956462
p711
tp712
a(g2
V91340100394253528K
p713
tp714
a(g2
V91340100MA2N1YDC0C
p715
tp716
a(g2
V91340100570405018W
p717
tp718
a(g2
V91340100592675019U
p719
tp720
a(g2
V91340100395085853Y
p721
tp722
a(g2
V91340100073936715G
p723
tp724
a(g2
V9134010035512634X5
p725
tp726
a(g2
V91340121MA2MQR4521
p727
tp728
a(g2
V913401005501949032
p729
tp730
a(g2
V913401003280332363
p731
tp732
a(g2
V913401006957395059
p733
tp734
a(g2
V913401000969145275
p735
tp736
a(g2
V91340100575747869N
p737
tp738
a(g2
V913401000544897455
p739
tp740
a(g2
V91340111MA2N4D7977
p741
tp742
a(g2
V9134010058013061XD
p743
tp744
a(g2
V913401235914458017
p745
tp746
a(g2
V913401005815280218
p747
tp748
a(g2
V91340100092472071M
p749
tp750
a(g2
V91340100336858932C
p751
tp752
a(g2
V91340100096915706J
p753
tp754
a(g2
V91340100586132579K
p755
tp756
a(g2
V91340100563432528C
p757
tp758
a(g2
V913401007690212493
p759
tp760
a(g2
V91340100075611236A
p761
tp762
a(g2
V91340100568957032X
p763
tp764
a(g2
V91340100573011719T
p765
tp766
a(g2
V913401000945883931
p767
tp768
a(g2
V9134060009079398XC
p769
tp770
a(g2
V91340100795059291X
p771
tp772
a(g2
V91340100MA2NQLFU14
p773
tp774
a(g2
V913401247529914686
p775
tp776
a(g2
V913401005815052763
p777
tp778
a(g2
V91340100748925038D
p779
tp780
a(g2
V913401005770844644
p781
tp782
a(g2
V913401005704349786
p783
tp784
a(g2
V91340100577084739H
p785
tp786
a(g2
V913401005563341108
p787
tp788
a(g2
V91340100683646256H
p789
tp790
a(g2
V91340100097872277W
p791
tp792
a(g2
V91340100073929689C
p793
tp794
a(g2
V913401216928320775
p795
tp796
a(g2
V9134010007094914XN
p797
tp798
a(g2
V91340100MA2MQBA14J
p799
tp800
a(g2
V913401007749932103
p801
tp802
a(g2
V91340100075611164H
p803
tp804
a(g2
V91340100077228679T
p805
tp806
a(g2
V91340100328109413R
p807
tp808
a(g2
V91340100MA2MT27E3A
p809
tp810
a(g2
V91340100574427150L
p811
tp812
a(g2
V913401000875927305
p813
tp814
a(g2
V91340100096169774J
p815
tp816
a(g2
V91340100396122927J
p817
tp818
a(g2
V91340100688135965A
p819
tp820
a(g2
V91340100054467693G
p821
tp822
a(g2
V91340100065222325E
p823
tp824
a(g2
V9134010059140273XC
p825
tp826
a(g2
V9134010007564402X2
p827
tp828
a(g2
V91340100597069595Q
p829
tp830
a(g2
V913401005717529860
p831
tp832
a(g2
V913401005872447324
p833
tp834
a(g2
V91340100050190789U
p835
tp836
a(g2
V91340100580116412A
p837
tp838
a(g2
V913401003254287503
p839
tp840
a(g2
V913401005744019116
p841
tp842
a(g2
V91340100MA2MTNNT5J
p843
tp844
a(g2
V91340100MA2MTY8A49
p845
tp846
a(g2
V91340100325428099B
p847
tp848
a(g2
V91340100MA2MXXCD30
p849
tp850
a(g2
V913401211492364924
p851
tp852
a(g2
V91340100322774383P
p853
tp854
a(g2
V913401006726326848
p855
tp856
a(g2
V91340100077234753N
p857
tp858
a(g2
V913401115730158755
p859
tp860
a(g2
V913401000652211979
p861
tp862
a(g2
V91340100595744307C
p863
tp864
a(g2
V91340100574419986E
p865
tp866
a(g2
V913401006941016814
p867
tp868
a(g2
V91340100099615557A
p869
tp870
a(g2
V913401005578447885
p871
tp872
a(g2
V913401220907506056
p873
tp874
a(g2
V91340100581501726D
p875
tp876
a(g2
V91340100085235596M
p877
tp878
a(g2
V91340100743098352K
p879
tp880
a(g2
V91340122MA2MXY4K2Q
p881
tp882
a(g2
V913401000723529109
p883
tp884
a(g2
V91340100566383493C
p885
tp886
a(g2
V91340100343908344W
p887
tp888
a(g2
V91340100073922874L
p889
tp890
a(g2
V91340100325439337Y
p891
tp892
a(g2
V913401005815221640
p893
tp894
a(g2
V9134010066144707X1
p895
tp896
a(g2
V91340100348756116N
p897
tp898
a(g2
V913401005757135466
p899
tp900
a(g2
V913401000739185848
p901
tp902
a(g2
V91340100752954472J
p903
tp904
a(g2
V91340100684981144D
p905
tp906
a(g2
V91340100057017276J
p907
tp908
a(g2
V91340100098002097Y
p909
tp910
a(g2
V9134010008032491X0
p911
tp912
a(g2
V9134010055784805X8
p913
tp914
a(g2
V91340100MA2NA1L88W
p915
tp916
a(g2
V91340100057017989L
p917
tp918
a(g2
V91340100551841164R
p919
tp920
a(g2
V92340104MA2N3DXB3T
p921
tp922
a(g2
V9134010006808807X4
p923
tp924
a(g2
V9134010034386963XD
p925
tp926
a(g2
V91340100553296585D
p927
tp928
a(g2
V91340100560672921Y
p929
tp930
a(g2
V913401005770837879
p931
tp932
a(g2
V91340100564984287N
p933
tp934
a(g2
V91340123092480928W
p935
tp936
a(g2
V91340100078717079W
p937
tp938
a(g2
V91340111MA2N9GK449
p939
tp940
a(g2
V913401006897827505
p941
tp942
a(g2
V91340100MA2N1C683P
p943
tp944
a(g2
V91340100MA2MWCW95A
p945
tp946
a(g2
V91340100570417393W
p947
tp948
a(g2
V9134010059427450X0
p949
tp950
a(g2
V9134010009458785XJ
p951
tp952
a(g2
V91340100050170323W
p953
tp954
a(g2
V91340100570427604F
p955
tp956
a(g2
V9134010057443326X0
p957
tp958
a(g2
V91340100397593018F
p959
tp960
a.